
..\target\thumbv7em-none-eabihf\debug\client:     file format elf32-littlearm


Disassembly of section .text:

08000194 <Reset>:
 8000194:	f022 fa78 	bl	8022688 <DefaultPreInit>
 8000198:	480e      	ldr	r0, [pc, #56]	; (80001d4 <Reset+0x40>)
 800019a:	490f      	ldr	r1, [pc, #60]	; (80001d8 <Reset+0x44>)
 800019c:	2200      	movs	r2, #0
 800019e:	4281      	cmp	r1, r0
 80001a0:	d001      	beq.n	80001a6 <Reset+0x12>
 80001a2:	c004      	stmia	r0!, {r2}
 80001a4:	e7fb      	b.n	800019e <Reset+0xa>
 80001a6:	480d      	ldr	r0, [pc, #52]	; (80001dc <Reset+0x48>)
 80001a8:	490d      	ldr	r1, [pc, #52]	; (80001e0 <Reset+0x4c>)
 80001aa:	4a0e      	ldr	r2, [pc, #56]	; (80001e4 <Reset+0x50>)
 80001ac:	4281      	cmp	r1, r0
 80001ae:	d002      	beq.n	80001b6 <Reset+0x22>
 80001b0:	ca08      	ldmia	r2!, {r3}
 80001b2:	c008      	stmia	r0!, {r3}
 80001b4:	e7fa      	b.n	80001ac <Reset+0x18>
 80001b6:	480c      	ldr	r0, [pc, #48]	; (80001e8 <Reset+0x54>)
 80001b8:	f44f 0170 	mov.w	r1, #15728640	; 0xf00000
 80001bc:	6802      	ldr	r2, [r0, #0]
 80001be:	ea42 0201 	orr.w	r2, r2, r1
 80001c2:	6002      	str	r2, [r0, #0]
 80001c4:	f3bf 8f4f 	dsb	sy
 80001c8:	f3bf 8f6f 	isb	sy
 80001cc:	f00f fd60 	bl	800fc90 <main>
 80001d0:	de00      	udf	#0
 80001d2:	0000      	movs	r0, r0
 80001d4:	20000148 	.word	0x20000148
 80001d8:	200084c0 	.word	0x200084c0
 80001dc:	20000000 	.word	0x20000000
 80001e0:	20000148 	.word	0x20000148
 80001e4:	0802cc58 	.word	0x0802cc58
 80001e8:	e000ed88 	.word	0xe000ed88

080001ec <_ZN12futures_util6future13assert_future17h2b106ee3458cbc1bE>:
 80001ec:	b081      	sub	sp, #4
 80001ee:	9000      	str	r0, [sp, #0]
 80001f0:	b001      	add	sp, #4
 80001f2:	4770      	bx	lr

080001f4 <_ZN12futures_util6future13assert_future17h4366cf0bf1751699E>:
 80001f4:	468c      	mov	ip, r1
 80001f6:	4601      	mov	r1, r0
 80001f8:	f8dc 0000 	ldr.w	r0, [ip]
 80001fc:	f8dc 2004 	ldr.w	r2, [ip, #4]
 8000200:	f8dc 3008 	ldr.w	r3, [ip, #8]
 8000204:	f8dc c00c 	ldr.w	ip, [ip, #12]
 8000208:	f8c1 c00c 	str.w	ip, [r1, #12]
 800020c:	608b      	str	r3, [r1, #8]
 800020e:	604a      	str	r2, [r1, #4]
 8000210:	6008      	str	r0, [r1, #0]
 8000212:	4770      	bx	lr

08000214 <_ZN12futures_util6future13assert_future17h70a2472753e945bcE>:
 8000214:	468c      	mov	ip, r1
 8000216:	4601      	mov	r1, r0
 8000218:	f8dc 0000 	ldr.w	r0, [ip]
 800021c:	f8dc 2004 	ldr.w	r2, [ip, #4]
 8000220:	f8dc 3008 	ldr.w	r3, [ip, #8]
 8000224:	f8dc c00c 	ldr.w	ip, [ip, #12]
 8000228:	f8c1 c00c 	str.w	ip, [r1, #12]
 800022c:	608b      	str	r3, [r1, #8]
 800022e:	604a      	str	r2, [r1, #4]
 8000230:	6008      	str	r0, [r1, #0]
 8000232:	4770      	bx	lr

08000234 <_ZN12futures_util6future13assert_future17hf2b2a888885d064cE>:
 8000234:	b081      	sub	sp, #4
 8000236:	9000      	str	r0, [sp, #0]
 8000238:	b001      	add	sp, #4
 800023a:	4770      	bx	lr

0800023c <_ZN12futures_util6future13assert_future17hf83b760dba40a011E>:
 800023c:	b5b0      	push	{r4, r5, r7, lr}
 800023e:	af02      	add	r7, sp, #8
 8000240:	e891 503c 	ldmia.w	r1, {r2, r3, r4, r5, ip, lr}
 8000244:	e880 503c 	stmia.w	r0, {r2, r3, r4, r5, ip, lr}
 8000248:	bdb0      	pop	{r4, r5, r7, pc}

0800024a <_ZN12futures_util6future13assert_future17hf920815f4231023dE>:
 800024a:	b081      	sub	sp, #4
 800024c:	9000      	str	r0, [sp, #0]
 800024e:	b001      	add	sp, #4
 8000250:	4770      	bx	lr

08000252 <_ZN16critical_section4with17h160df1ded9fbda05E>:
 8000252:	b580      	push	{r7, lr}
 8000254:	466f      	mov	r7, sp
 8000256:	b086      	sub	sp, #24
 8000258:	9100      	str	r1, [sp, #0]
 800025a:	9001      	str	r0, [sp, #4]
 800025c:	9003      	str	r0, [sp, #12]
 800025e:	9104      	str	r1, [sp, #16]
 8000260:	f022 ffec 	bl	802323c <_critical_section_1_0_acquire>
 8000264:	9900      	ldr	r1, [sp, #0]
 8000266:	4602      	mov	r2, r0
 8000268:	9801      	ldr	r0, [sp, #4]
 800026a:	f807 2c01 	strb.w	r2, [r7, #-1]
 800026e:	f807 2c0d 	strb.w	r2, [r7, #-13]
 8000272:	f00a fc02 	bl	800aa7a <_ZN13embassy_stm324gpio13Flex$LT$T$GT$13set_as_output28_$u7b$$u7b$closure$u7d$$u7d$17h45aa6cccdc999454E>
 8000276:	f1a7 000d 	sub.w	r0, r7, #13
 800027a:	f011 f9dc 	bl	8011636 <_ZN4core3ptr50drop_in_place$LT$critical_section..with..Guard$GT$17h92c67bc92f2cacc0E>
 800027e:	b006      	add	sp, #24
 8000280:	bd80      	pop	{r7, pc}

08000282 <_ZN16critical_section4with17h2a10d067f853065fE>:
 8000282:	b580      	push	{r7, lr}
 8000284:	466f      	mov	r7, sp
 8000286:	b082      	sub	sp, #8
 8000288:	9000      	str	r0, [sp, #0]
 800028a:	f022 ffd7 	bl	802323c <_critical_section_1_0_acquire>
 800028e:	4601      	mov	r1, r0
 8000290:	9800      	ldr	r0, [sp, #0]
 8000292:	f807 1c01 	strb.w	r1, [r7, #-1]
 8000296:	f807 1c02 	strb.w	r1, [r7, #-2]
 800029a:	f006 fc66 	bl	8006b6a <_ZN85_$LT$embassy_stm32..usb_otg..usb..Bus$LT$T$GT$$u20$as$u20$embassy_usb_driver..Bus$GT$20endpoint_set_stalled28_$u7b$$u7b$closure$u7d$$u7d$17heafd12b632c838a8E>
 800029e:	1eb8      	subs	r0, r7, #2
 80002a0:	f011 f9c9 	bl	8011636 <_ZN4core3ptr50drop_in_place$LT$critical_section..with..Guard$GT$17h92c67bc92f2cacc0E>
 80002a4:	b002      	add	sp, #8
 80002a6:	bd80      	pop	{r7, pc}

080002a8 <_ZN16critical_section4with17h37fe011e213da7a7E>:
 80002a8:	b580      	push	{r7, lr}
 80002aa:	466f      	mov	r7, sp
 80002ac:	b086      	sub	sp, #24
 80002ae:	9100      	str	r1, [sp, #0]
 80002b0:	9001      	str	r0, [sp, #4]
 80002b2:	9003      	str	r0, [sp, #12]
 80002b4:	9104      	str	r1, [sp, #16]
 80002b6:	f022 ffc1 	bl	802323c <_critical_section_1_0_acquire>
 80002ba:	9900      	ldr	r1, [sp, #0]
 80002bc:	4602      	mov	r2, r0
 80002be:	9801      	ldr	r0, [sp, #4]
 80002c0:	f807 2c01 	strb.w	r2, [r7, #-1]
 80002c4:	f807 2c0d 	strb.w	r2, [r7, #-13]
 80002c8:	f002 fe88 	bl	8002fdc <_ZN131_$LT$embassy_stm32..usb_otg..usb..Endpoint$LT$T$C$embassy_stm32..usb_otg..usb..In$GT$$u20$as$u20$embassy_usb_driver..EndpointIn$GT$5write28_$u7b$$u7b$closure$u7d$$u7d$28_$u7b$$u7b$closure$u7d$$u7d$28_$u7b$$u7b$closure$u7d$$u7d$17hfa7888868eaa8e88E>
 80002cc:	f1a7 000d 	sub.w	r0, r7, #13
 80002d0:	f011 f9b1 	bl	8011636 <_ZN4core3ptr50drop_in_place$LT$critical_section..with..Guard$GT$17h92c67bc92f2cacc0E>
 80002d4:	b006      	add	sp, #24
 80002d6:	bd80      	pop	{r7, pc}

080002d8 <_ZN16critical_section4with17h4470f4b67087780dE>:
 80002d8:	b580      	push	{r7, lr}
 80002da:	466f      	mov	r7, sp
 80002dc:	b086      	sub	sp, #24
 80002de:	9100      	str	r1, [sp, #0]
 80002e0:	9001      	str	r0, [sp, #4]
 80002e2:	9003      	str	r0, [sp, #12]
 80002e4:	9104      	str	r1, [sp, #16]
 80002e6:	f022 ffa9 	bl	802323c <_critical_section_1_0_acquire>
 80002ea:	9900      	ldr	r1, [sp, #0]
 80002ec:	4602      	mov	r2, r0
 80002ee:	9801      	ldr	r0, [sp, #4]
 80002f0:	f807 2c01 	strb.w	r2, [r7, #-1]
 80002f4:	f807 2c0d 	strb.w	r2, [r7, #-13]
 80002f8:	f003 f8e3 	bl	80034c2 <_ZN133_$LT$embassy_stm32..usb_otg..usb..Endpoint$LT$T$C$embassy_stm32..usb_otg..usb..Out$GT$$u20$as$u20$embassy_usb_driver..EndpointOut$GT$4read28_$u7b$$u7b$closure$u7d$$u7d$28_$u7b$$u7b$closure$u7d$$u7d$28_$u7b$$u7b$closure$u7d$$u7d$17h0204dec4b0d862c4E>
 80002fc:	f1a7 000d 	sub.w	r0, r7, #13
 8000300:	f011 f999 	bl	8011636 <_ZN4core3ptr50drop_in_place$LT$critical_section..with..Guard$GT$17h92c67bc92f2cacc0E>
 8000304:	b006      	add	sp, #24
 8000306:	bd80      	pop	{r7, pc}

08000308 <_ZN16critical_section4with17h4608169fcd5c8d62E>:
 8000308:	b580      	push	{r7, lr}
 800030a:	466f      	mov	r7, sp
 800030c:	b082      	sub	sp, #8
 800030e:	9000      	str	r0, [sp, #0]
 8000310:	f022 ff94 	bl	802323c <_critical_section_1_0_acquire>
 8000314:	4601      	mov	r1, r0
 8000316:	9800      	ldr	r0, [sp, #0]
 8000318:	f807 1c01 	strb.w	r1, [r7, #-1]
 800031c:	f807 1c02 	strb.w	r1, [r7, #-2]
 8000320:	f003 fb8e 	bl	8003a40 <_ZN13embassy_stm327usb_otg3usb12Bus$LT$T$GT$19configure_endpoints28_$u7b$$u7b$closure$u7d$$u7d$17h9287f3caaa95e192E>
 8000324:	1eb8      	subs	r0, r7, #2
 8000326:	f011 f986 	bl	8011636 <_ZN4core3ptr50drop_in_place$LT$critical_section..with..Guard$GT$17h92c67bc92f2cacc0E>
 800032a:	b002      	add	sp, #8
 800032c:	bd80      	pop	{r7, pc}

0800032e <_ZN16critical_section4with17h737f0c44515fa533E>:
 800032e:	b580      	push	{r7, lr}
 8000330:	466f      	mov	r7, sp
 8000332:	b082      	sub	sp, #8
 8000334:	9000      	str	r0, [sp, #0]
 8000336:	f022 ff81 	bl	802323c <_critical_section_1_0_acquire>
 800033a:	4601      	mov	r1, r0
 800033c:	9800      	ldr	r0, [sp, #0]
 800033e:	f807 1c01 	strb.w	r1, [r7, #-1]
 8000342:	f807 1c02 	strb.w	r1, [r7, #-2]
 8000346:	f006 f924 	bl	8006592 <_ZN85_$LT$embassy_stm32..usb_otg..usb..Bus$LT$T$GT$$u20$as$u20$embassy_usb_driver..Bus$GT$20endpoint_set_enabled28_$u7b$$u7b$closure$u7d$$u7d$17hed8096a8494f2baaE>
 800034a:	1eb8      	subs	r0, r7, #2
 800034c:	f011 f973 	bl	8011636 <_ZN4core3ptr50drop_in_place$LT$critical_section..with..Guard$GT$17h92c67bc92f2cacc0E>
 8000350:	b002      	add	sp, #8
 8000352:	bd80      	pop	{r7, pc}

08000354 <_ZN16critical_section4with17h74c510ceb1068690E>:
 8000354:	b580      	push	{r7, lr}
 8000356:	466f      	mov	r7, sp
 8000358:	b082      	sub	sp, #8
 800035a:	9000      	str	r0, [sp, #0]
 800035c:	f022 ff6e 	bl	802323c <_critical_section_1_0_acquire>
 8000360:	4601      	mov	r1, r0
 8000362:	9800      	ldr	r0, [sp, #0]
 8000364:	f807 1c01 	strb.w	r1, [r7, #-1]
 8000368:	f807 1c02 	strb.w	r1, [r7, #-2]
 800036c:	f003 faab 	bl	80038c6 <_ZN13embassy_stm327usb_otg3usb12Bus$LT$T$GT$19configure_endpoints28_$u7b$$u7b$closure$u7d$$u7d$17h4ae16c8abfede4f1E>
 8000370:	1eb8      	subs	r0, r7, #2
 8000372:	f011 f960 	bl	8011636 <_ZN4core3ptr50drop_in_place$LT$critical_section..with..Guard$GT$17h92c67bc92f2cacc0E>
 8000376:	b002      	add	sp, #8
 8000378:	bd80      	pop	{r7, pc}

0800037a <_ZN16critical_section4with17h7784838d379d6d27E>:
 800037a:	b580      	push	{r7, lr}
 800037c:	466f      	mov	r7, sp
 800037e:	b086      	sub	sp, #24
 8000380:	9001      	str	r0, [sp, #4]
 8000382:	9004      	str	r0, [sp, #16]
 8000384:	f022 ff5a 	bl	802323c <_critical_section_1_0_acquire>
 8000388:	4601      	mov	r1, r0
 800038a:	9801      	ldr	r0, [sp, #4]
 800038c:	f807 1c01 	strb.w	r1, [r7, #-1]
 8000390:	f807 1c09 	strb.w	r1, [r7, #-9]
 8000394:	f000 fc26 	bl	8000be4 <_ZN16embassy_executor7_export11TaskPoolRef3get28_$u7b$$u7b$closure$u7d$$u7d$17hb79522998afb9568E>
 8000398:	9002      	str	r0, [sp, #8]
 800039a:	f1a7 0009 	sub.w	r0, r7, #9
 800039e:	f011 f94a 	bl	8011636 <_ZN4core3ptr50drop_in_place$LT$critical_section..with..Guard$GT$17h92c67bc92f2cacc0E>
 80003a2:	9802      	ldr	r0, [sp, #8]
 80003a4:	b006      	add	sp, #24
 80003a6:	bd80      	pop	{r7, pc}

080003a8 <_ZN16critical_section4with17h89ed4ca9ee35cdbcE>:
 80003a8:	b580      	push	{r7, lr}
 80003aa:	466f      	mov	r7, sp
 80003ac:	b082      	sub	sp, #8
 80003ae:	f022 ff45 	bl	802323c <_critical_section_1_0_acquire>
 80003b2:	f807 0c01 	strb.w	r0, [r7, #-1]
 80003b6:	f807 0c03 	strb.w	r0, [r7, #-3]
 80003ba:	f00f fe6f 	bl	801009c <_ZN13embassy_stm323rcc6sealed13RccPeripheral16enable_and_reset28_$u7b$$u7b$closure$u7d$$u7d$17h131ebc2e02d052b8E>
 80003be:	1ef8      	subs	r0, r7, #3
 80003c0:	f011 f939 	bl	8011636 <_ZN4core3ptr50drop_in_place$LT$critical_section..with..Guard$GT$17h92c67bc92f2cacc0E>
 80003c4:	b002      	add	sp, #8
 80003c6:	bd80      	pop	{r7, pc}

080003c8 <_ZN16critical_section4with17h8baeaf834cf64ae2E>:
 80003c8:	b580      	push	{r7, lr}
 80003ca:	466f      	mov	r7, sp
 80003cc:	b082      	sub	sp, #8
 80003ce:	f022 ff35 	bl	802323c <_critical_section_1_0_acquire>
 80003d2:	f807 0c01 	strb.w	r0, [r7, #-1]
 80003d6:	f807 0c03 	strb.w	r0, [r7, #-3]
 80003da:	f00f fe66 	bl	80100aa <_ZN13embassy_stm323rcc6sealed13RccPeripheral7disable28_$u7b$$u7b$closure$u7d$$u7d$17h5283a9673eab845eE>
 80003de:	1ef8      	subs	r0, r7, #3
 80003e0:	f011 f929 	bl	8011636 <_ZN4core3ptr50drop_in_place$LT$critical_section..with..Guard$GT$17h92c67bc92f2cacc0E>
 80003e4:	b002      	add	sp, #8
 80003e6:	bd80      	pop	{r7, pc}

080003e8 <_ZN16critical_section4with17ha14c9b6c357ab31aE>:
 80003e8:	b580      	push	{r7, lr}
 80003ea:	466f      	mov	r7, sp
 80003ec:	b082      	sub	sp, #8
 80003ee:	9000      	str	r0, [sp, #0]
 80003f0:	f022 ff24 	bl	802323c <_critical_section_1_0_acquire>
 80003f4:	4601      	mov	r1, r0
 80003f6:	9800      	ldr	r0, [sp, #0]
 80003f8:	f807 1c01 	strb.w	r1, [r7, #-1]
 80003fc:	f807 1c02 	strb.w	r1, [r7, #-2]
 8000400:	f005 ffa8 	bl	8006354 <_ZN85_$LT$embassy_stm32..usb_otg..usb..Bus$LT$T$GT$$u20$as$u20$embassy_usb_driver..Bus$GT$20endpoint_set_enabled28_$u7b$$u7b$closure$u7d$$u7d$17h158da8782bcaa60cE>
 8000404:	1eb8      	subs	r0, r7, #2
 8000406:	f011 f916 	bl	8011636 <_ZN4core3ptr50drop_in_place$LT$critical_section..with..Guard$GT$17h92c67bc92f2cacc0E>
 800040a:	b002      	add	sp, #8
 800040c:	bd80      	pop	{r7, pc}

0800040e <_ZN16critical_section4with17ha1f58766b78f1569E>:
 800040e:	b580      	push	{r7, lr}
 8000410:	466f      	mov	r7, sp
 8000412:	b086      	sub	sp, #24
 8000414:	9100      	str	r1, [sp, #0]
 8000416:	9001      	str	r0, [sp, #4]
 8000418:	9003      	str	r0, [sp, #12]
 800041a:	9104      	str	r1, [sp, #16]
 800041c:	f022 ff0e 	bl	802323c <_critical_section_1_0_acquire>
 8000420:	9900      	ldr	r1, [sp, #0]
 8000422:	4602      	mov	r2, r0
 8000424:	9801      	ldr	r0, [sp, #4]
 8000426:	f807 2c01 	strb.w	r2, [r7, #-1]
 800042a:	f807 2c0d 	strb.w	r2, [r7, #-13]
 800042e:	f002 fbf1 	bl	8002c14 <_ZN131_$LT$embassy_stm32..usb_otg..usb..Endpoint$LT$T$C$embassy_stm32..usb_otg..usb..In$GT$$u20$as$u20$embassy_usb_driver..EndpointIn$GT$5write28_$u7b$$u7b$closure$u7d$$u7d$28_$u7b$$u7b$closure$u7d$$u7d$17hc469c8deb498394dE>
 8000432:	f1a7 000d 	sub.w	r0, r7, #13
 8000436:	f011 f8fe 	bl	8011636 <_ZN4core3ptr50drop_in_place$LT$critical_section..with..Guard$GT$17h92c67bc92f2cacc0E>
 800043a:	b006      	add	sp, #24
 800043c:	bd80      	pop	{r7, pc}

0800043e <_ZN16critical_section4with17haa602ae41e98cad4E>:
 800043e:	b580      	push	{r7, lr}
 8000440:	466f      	mov	r7, sp
 8000442:	b086      	sub	sp, #24
 8000444:	9100      	str	r1, [sp, #0]
 8000446:	9001      	str	r0, [sp, #4]
 8000448:	9003      	str	r0, [sp, #12]
 800044a:	9104      	str	r1, [sp, #16]
 800044c:	f022 fef6 	bl	802323c <_critical_section_1_0_acquire>
 8000450:	9900      	ldr	r1, [sp, #0]
 8000452:	4602      	mov	r2, r0
 8000454:	9801      	ldr	r0, [sp, #4]
 8000456:	f807 2c01 	strb.w	r2, [r7, #-1]
 800045a:	f807 2c0d 	strb.w	r2, [r7, #-13]
 800045e:	f005 fd00 	bl	8005e62 <_ZN203_$LT$embassy_stm32..usb_otg..usb..InterruptHandler$LT$T$GT$$u20$as$u20$embassy_stm32.._generated..interrupt..typelevel..Handler$LT$$LT$T$u20$as$u20$embassy_stm32..usb_otg..Instance$GT$..Interrupt$GT$$GT$12on_interrupt28_$u7b$$u7b$closure$u7d$$u7d$17h012f18737b016572E>
 8000462:	f1a7 000d 	sub.w	r0, r7, #13
 8000466:	f011 f8e6 	bl	8011636 <_ZN4core3ptr50drop_in_place$LT$critical_section..with..Guard$GT$17h92c67bc92f2cacc0E>
 800046a:	b006      	add	sp, #24
 800046c:	bd80      	pop	{r7, pc}

0800046e <_ZN16critical_section4with17hacc15b400ed716d8E>:
 800046e:	b580      	push	{r7, lr}
 8000470:	466f      	mov	r7, sp
 8000472:	b084      	sub	sp, #16
 8000474:	9000      	str	r0, [sp, #0]
 8000476:	9002      	str	r0, [sp, #8]
 8000478:	f022 fee0 	bl	802323c <_critical_section_1_0_acquire>
 800047c:	4601      	mov	r1, r0
 800047e:	9800      	ldr	r0, [sp, #0]
 8000480:	f807 1c01 	strb.w	r1, [r7, #-1]
 8000484:	f807 1c09 	strb.w	r1, [r7, #-9]
 8000488:	f006 ff0f 	bl	80072aa <_ZN85_$LT$embassy_stm32..usb_otg..usb..Bus$LT$T$GT$$u20$as$u20$embassy_usb_driver..Bus$GT$4poll28_$u7b$$u7b$closure$u7d$$u7d$28_$u7b$$u7b$closure$u7d$$u7d$28_$u7b$$u7b$closure$u7d$$u7d$17hbe92162e4e5b3081E>
 800048c:	f1a7 0009 	sub.w	r0, r7, #9
 8000490:	f011 f8d1 	bl	8011636 <_ZN4core3ptr50drop_in_place$LT$critical_section..with..Guard$GT$17h92c67bc92f2cacc0E>
 8000494:	b004      	add	sp, #16
 8000496:	bd80      	pop	{r7, pc}

08000498 <_ZN16critical_section4with17hafbc95158bc66affE>:
 8000498:	b580      	push	{r7, lr}
 800049a:	466f      	mov	r7, sp
 800049c:	b084      	sub	sp, #16
 800049e:	9000      	str	r0, [sp, #0]
 80004a0:	9002      	str	r0, [sp, #8]
 80004a2:	f022 fecb 	bl	802323c <_critical_section_1_0_acquire>
 80004a6:	4601      	mov	r1, r0
 80004a8:	9800      	ldr	r0, [sp, #0]
 80004aa:	f807 1c01 	strb.w	r1, [r7, #-1]
 80004ae:	f807 1c09 	strb.w	r1, [r7, #-9]
 80004b2:	f001 f9d7 	bl	8001864 <_ZN101_$LT$embassy_stm32..usb_otg..usb..ControlPipe$LT$T$GT$$u20$as$u20$embassy_usb_driver..ControlPipe$GT$18accept_set_address28_$u7b$$u7b$closure$u7d$$u7d$28_$u7b$$u7b$closure$u7d$$u7d$17h6c894418cefecfe8E>
 80004b6:	f1a7 0009 	sub.w	r0, r7, #9
 80004ba:	f011 f8bc 	bl	8011636 <_ZN4core3ptr50drop_in_place$LT$critical_section..with..Guard$GT$17h92c67bc92f2cacc0E>
 80004be:	b004      	add	sp, #16
 80004c0:	bd80      	pop	{r7, pc}

080004c2 <_ZN16critical_section4with17hbac0e78e6bff52f2E>:
 80004c2:	b580      	push	{r7, lr}
 80004c4:	466f      	mov	r7, sp
 80004c6:	b082      	sub	sp, #8
 80004c8:	9000      	str	r0, [sp, #0]
 80004ca:	f022 feb7 	bl	802323c <_critical_section_1_0_acquire>
 80004ce:	4601      	mov	r1, r0
 80004d0:	9800      	ldr	r0, [sp, #0]
 80004d2:	f807 1c01 	strb.w	r1, [r7, #-1]
 80004d6:	f807 1c02 	strb.w	r1, [r7, #-2]
 80004da:	f006 fade 	bl	8006a9a <_ZN85_$LT$embassy_stm32..usb_otg..usb..Bus$LT$T$GT$$u20$as$u20$embassy_usb_driver..Bus$GT$20endpoint_set_stalled28_$u7b$$u7b$closure$u7d$$u7d$17h88f80c950dcd43deE>
 80004de:	1eb8      	subs	r0, r7, #2
 80004e0:	f011 f8a9 	bl	8011636 <_ZN4core3ptr50drop_in_place$LT$critical_section..with..Guard$GT$17h92c67bc92f2cacc0E>
 80004e4:	b002      	add	sp, #8
 80004e6:	bd80      	pop	{r7, pc}

080004e8 <_ZN16critical_section4with17hbff2e71294993236E>:
 80004e8:	b580      	push	{r7, lr}
 80004ea:	466f      	mov	r7, sp
 80004ec:	b086      	sub	sp, #24
 80004ee:	9001      	str	r0, [sp, #4]
 80004f0:	9004      	str	r0, [sp, #16]
 80004f2:	f022 fea3 	bl	802323c <_critical_section_1_0_acquire>
 80004f6:	4601      	mov	r1, r0
 80004f8:	9801      	ldr	r0, [sp, #4]
 80004fa:	f807 1c01 	strb.w	r1, [r7, #-1]
 80004fe:	f807 1c09 	strb.w	r1, [r7, #-9]
 8000502:	f000 fb29 	bl	8000b58 <_ZN16embassy_executor7_export11TaskPoolRef3get28_$u7b$$u7b$closure$u7d$$u7d$17hb6004bf289131273E>
 8000506:	9002      	str	r0, [sp, #8]
 8000508:	f1a7 0009 	sub.w	r0, r7, #9
 800050c:	f011 f893 	bl	8011636 <_ZN4core3ptr50drop_in_place$LT$critical_section..with..Guard$GT$17h92c67bc92f2cacc0E>
 8000510:	9802      	ldr	r0, [sp, #8]
 8000512:	b006      	add	sp, #24
 8000514:	bd80      	pop	{r7, pc}

08000516 <_ZN16critical_section4with17hcf7faeed311457b7E>:
 8000516:	b580      	push	{r7, lr}
 8000518:	466f      	mov	r7, sp
 800051a:	b084      	sub	sp, #16
 800051c:	9000      	str	r0, [sp, #0]
 800051e:	9002      	str	r0, [sp, #8]
 8000520:	f022 fe8c 	bl	802323c <_critical_section_1_0_acquire>
 8000524:	4601      	mov	r1, r0
 8000526:	9800      	ldr	r0, [sp, #0]
 8000528:	f807 1c01 	strb.w	r1, [r7, #-1]
 800052c:	f807 1c09 	strb.w	r1, [r7, #-9]
 8000530:	f00a fce8 	bl	800af04 <_ZN76_$LT$embassy_stm32..gpio..Flex$LT$T$GT$$u20$as$u20$core..ops..drop..Drop$GT$4drop28_$u7b$$u7b$closure$u7d$$u7d$17h546c9e44d9e42dfcE>
 8000534:	f1a7 0009 	sub.w	r0, r7, #9
 8000538:	f011 f87d 	bl	8011636 <_ZN4core3ptr50drop_in_place$LT$critical_section..with..Guard$GT$17h92c67bc92f2cacc0E>
 800053c:	b004      	add	sp, #16
 800053e:	bd80      	pop	{r7, pc}

08000540 <_ZN75_$LT$usize$u20$as$u20$core..slice..index..SliceIndex$LT$$u5b$T$u5d$$GT$$GT$17get_unchecked_mut18precondition_check17h6dbe21a4a160dab7E>:
 8000540:	b580      	push	{r7, lr}
 8000542:	466f      	mov	r7, sp
 8000544:	b082      	sub	sp, #8
 8000546:	9000      	str	r0, [sp, #0]
 8000548:	9101      	str	r1, [sp, #4]
 800054a:	4288      	cmp	r0, r1
 800054c:	d307      	bcc.n	800055e <_ZN75_$LT$usize$u20$as$u20$core..slice..index..SliceIndex$LT$$u5b$T$u5d$$GT$$GT$17get_unchecked_mut18precondition_check17h6dbe21a4a160dab7E+0x1e>
 800054e:	e7ff      	b.n	8000550 <_ZN75_$LT$usize$u20$as$u20$core..slice..index..SliceIndex$LT$$u5b$T$u5d$$GT$$GT$17get_unchecked_mut18precondition_check17h6dbe21a4a160dab7E+0x10>
 8000550:	f645 4090 	movw	r0, #23696	; 0x5c90
 8000554:	f6c0 0002 	movt	r0, #2050	; 0x802
 8000558:	2165      	movs	r1, #101	; 0x65
 800055a:	f023 fc8a 	bl	8023e72 <_ZN4core9panicking14panic_nounwind17hfaec30b00873b2ceE>
 800055e:	b002      	add	sp, #8
 8000560:	bd80      	pop	{r7, pc}

08000562 <_ZN12futures_util6future7poll_fn7poll_fn17h1b842676da40511aE>:
 8000562:	b580      	push	{r7, lr}
 8000564:	466f      	mov	r7, sp
 8000566:	b082      	sub	sp, #8
 8000568:	9001      	str	r0, [sp, #4]
 800056a:	f7ff fe63 	bl	8000234 <_ZN12futures_util6future13assert_future17hf2b2a888885d064cE>
 800056e:	b002      	add	sp, #8
 8000570:	bd80      	pop	{r7, pc}

08000572 <_ZN12futures_util6future7poll_fn7poll_fn17h32917b20b4a39c94E>:
 8000572:	b5f0      	push	{r4, r5, r6, r7, lr}
 8000574:	af03      	add	r7, sp, #12
 8000576:	f84d 8d04 	str.w	r8, [sp, #-4]!
 800057a:	b086      	sub	sp, #24
 800057c:	460b      	mov	r3, r1
 800057e:	4669      	mov	r1, sp
 8000580:	460a      	mov	r2, r1
 8000582:	e893 5170 	ldmia.w	r3, {r4, r5, r6, r8, ip, lr}
 8000586:	e882 5170 	stmia.w	r2, {r4, r5, r6, r8, ip, lr}
 800058a:	f7ff fe57 	bl	800023c <_ZN12futures_util6future13assert_future17hf83b760dba40a011E>
 800058e:	b006      	add	sp, #24
 8000590:	f85d 8b04 	ldr.w	r8, [sp], #4
 8000594:	bdf0      	pop	{r4, r5, r6, r7, pc}

08000596 <_ZN12futures_util6future7poll_fn7poll_fn17h97e5724b82424cedE>:
 8000596:	b580      	push	{r7, lr}
 8000598:	466f      	mov	r7, sp
 800059a:	b082      	sub	sp, #8
 800059c:	9001      	str	r0, [sp, #4]
 800059e:	f7ff fe54 	bl	800024a <_ZN12futures_util6future13assert_future17hf920815f4231023dE>
 80005a2:	b002      	add	sp, #8
 80005a4:	bd80      	pop	{r7, pc}

080005a6 <_ZN12futures_util6future7poll_fn7poll_fn17h9cd213218169bb74E>:
 80005a6:	b580      	push	{r7, lr}
 80005a8:	466f      	mov	r7, sp
 80005aa:	b084      	sub	sp, #16
 80005ac:	468c      	mov	ip, r1
 80005ae:	f8dc 1000 	ldr.w	r1, [ip]
 80005b2:	f8dc 2004 	ldr.w	r2, [ip, #4]
 80005b6:	f8dc 3008 	ldr.w	r3, [ip, #8]
 80005ba:	f8dc c00c 	ldr.w	ip, [ip, #12]
 80005be:	f8cd c00c 	str.w	ip, [sp, #12]
 80005c2:	9302      	str	r3, [sp, #8]
 80005c4:	9201      	str	r2, [sp, #4]
 80005c6:	9100      	str	r1, [sp, #0]
 80005c8:	4669      	mov	r1, sp
 80005ca:	f7ff fe23 	bl	8000214 <_ZN12futures_util6future13assert_future17h70a2472753e945bcE>
 80005ce:	b004      	add	sp, #16
 80005d0:	bd80      	pop	{r7, pc}

080005d2 <_ZN12futures_util6future7poll_fn7poll_fn17hb1b2ae00c478b950E>:
 80005d2:	b580      	push	{r7, lr}
 80005d4:	466f      	mov	r7, sp
 80005d6:	b082      	sub	sp, #8
 80005d8:	9001      	str	r0, [sp, #4]
 80005da:	f7ff fe07 	bl	80001ec <_ZN12futures_util6future13assert_future17h2b106ee3458cbc1bE>
 80005de:	b002      	add	sp, #8
 80005e0:	bd80      	pop	{r7, pc}

080005e2 <_ZN12futures_util6future7poll_fn7poll_fn17hcfbd7fbdcd898562E>:
 80005e2:	b580      	push	{r7, lr}
 80005e4:	466f      	mov	r7, sp
 80005e6:	b084      	sub	sp, #16
 80005e8:	468c      	mov	ip, r1
 80005ea:	f8dc 1000 	ldr.w	r1, [ip]
 80005ee:	f8dc 2004 	ldr.w	r2, [ip, #4]
 80005f2:	f8dc 3008 	ldr.w	r3, [ip, #8]
 80005f6:	f8dc c00c 	ldr.w	ip, [ip, #12]
 80005fa:	f8cd c00c 	str.w	ip, [sp, #12]
 80005fe:	9302      	str	r3, [sp, #8]
 8000600:	9201      	str	r2, [sp, #4]
 8000602:	9100      	str	r1, [sp, #0]
 8000604:	4669      	mov	r1, sp
 8000606:	f7ff fdf5 	bl	80001f4 <_ZN12futures_util6future13assert_future17h4366cf0bf1751699E>
 800060a:	b004      	add	sp, #16
 800060c:	bd80      	pop	{r7, pc}

0800060e <_ZN59_$LT$F$u20$as$u20$core..future..into_future..IntoFuture$GT$11into_future17h10a6a7825ccc09baE>:
 800060e:	b081      	sub	sp, #4
 8000610:	9000      	str	r0, [sp, #0]
 8000612:	b001      	add	sp, #4
 8000614:	4770      	bx	lr

08000616 <_ZN59_$LT$F$u20$as$u20$core..future..into_future..IntoFuture$GT$11into_future17h55fec9b3a99912d8E>:
 8000616:	468c      	mov	ip, r1
 8000618:	4601      	mov	r1, r0
 800061a:	f8dc 0000 	ldr.w	r0, [ip]
 800061e:	f8dc 2004 	ldr.w	r2, [ip, #4]
 8000622:	f8dc 3008 	ldr.w	r3, [ip, #8]
 8000626:	f8dc c00c 	ldr.w	ip, [ip, #12]
 800062a:	f8c1 c00c 	str.w	ip, [r1, #12]
 800062e:	608b      	str	r3, [r1, #8]
 8000630:	604a      	str	r2, [r1, #4]
 8000632:	6008      	str	r0, [r1, #0]
 8000634:	4770      	bx	lr

08000636 <_ZN59_$LT$F$u20$as$u20$core..future..into_future..IntoFuture$GT$11into_future17h641eab79d6bcce9bE>:
 8000636:	468c      	mov	ip, r1
 8000638:	4601      	mov	r1, r0
 800063a:	f8dc 0000 	ldr.w	r0, [ip]
 800063e:	f8dc 2004 	ldr.w	r2, [ip, #4]
 8000642:	f8dc 3008 	ldr.w	r3, [ip, #8]
 8000646:	f8dc c00c 	ldr.w	ip, [ip, #12]
 800064a:	f8c1 c00c 	str.w	ip, [r1, #12]
 800064e:	608b      	str	r3, [r1, #8]
 8000650:	604a      	str	r2, [r1, #4]
 8000652:	6008      	str	r0, [r1, #0]
 8000654:	4770      	bx	lr

08000656 <_ZN59_$LT$F$u20$as$u20$core..future..into_future..IntoFuture$GT$11into_future17h6d5e6872c1fb55d3E>:
 8000656:	b081      	sub	sp, #4
 8000658:	9000      	str	r0, [sp, #0]
 800065a:	b001      	add	sp, #4
 800065c:	4770      	bx	lr

0800065e <_ZN59_$LT$F$u20$as$u20$core..future..into_future..IntoFuture$GT$11into_future17hb8320545d40a6340E>:
 800065e:	b081      	sub	sp, #4
 8000660:	9000      	str	r0, [sp, #0]
 8000662:	b001      	add	sp, #4
 8000664:	4770      	bx	lr

08000666 <_ZN59_$LT$F$u20$as$u20$core..future..into_future..IntoFuture$GT$11into_future17hc24312475fa1f026E>:
 8000666:	b5b0      	push	{r4, r5, r7, lr}
 8000668:	af02      	add	r7, sp, #8
 800066a:	e891 503c 	ldmia.w	r1, {r2, r3, r4, r5, ip, lr}
 800066e:	e880 503c 	stmia.w	r0, {r2, r3, r4, r5, ip, lr}
 8000672:	bdb0      	pop	{r4, r5, r7, pc}

08000674 <_ZN60_$LT$$RF$mut$u20$T$u20$as$u20$core..ops..deref..DerefMut$GT$9deref_mut17h049c53dd85301e44E>:
 8000674:	b081      	sub	sp, #4
 8000676:	9000      	str	r0, [sp, #0]
 8000678:	6800      	ldr	r0, [r0, #0]
 800067a:	b001      	add	sp, #4
 800067c:	4770      	bx	lr

0800067e <_ZN60_$LT$$RF$mut$u20$T$u20$as$u20$core..ops..deref..DerefMut$GT$9deref_mut17h21175281b3f3d1fcE>:
 800067e:	b081      	sub	sp, #4
 8000680:	9000      	str	r0, [sp, #0]
 8000682:	6800      	ldr	r0, [r0, #0]
 8000684:	b001      	add	sp, #4
 8000686:	4770      	bx	lr

08000688 <_ZN60_$LT$$RF$mut$u20$T$u20$as$u20$core..ops..deref..DerefMut$GT$9deref_mut17h707a0a52be0ac22aE>:
 8000688:	b081      	sub	sp, #4
 800068a:	9000      	str	r0, [sp, #0]
 800068c:	6800      	ldr	r0, [r0, #0]
 800068e:	b001      	add	sp, #4
 8000690:	4770      	bx	lr

08000692 <_ZN60_$LT$$RF$mut$u20$T$u20$as$u20$core..ops..deref..DerefMut$GT$9deref_mut17h8d93a083c126f368E>:
 8000692:	b081      	sub	sp, #4
 8000694:	9000      	str	r0, [sp, #0]
 8000696:	6800      	ldr	r0, [r0, #0]
 8000698:	b001      	add	sp, #4
 800069a:	4770      	bx	lr

0800069c <_ZN60_$LT$$RF$mut$u20$T$u20$as$u20$core..ops..deref..DerefMut$GT$9deref_mut17h96dba9cab85d8202E>:
 800069c:	b081      	sub	sp, #4
 800069e:	9000      	str	r0, [sp, #0]
 80006a0:	6800      	ldr	r0, [r0, #0]
 80006a2:	b001      	add	sp, #4
 80006a4:	4770      	bx	lr

080006a6 <_ZN60_$LT$$RF$mut$u20$T$u20$as$u20$core..ops..deref..DerefMut$GT$9deref_mut17hdbf9cdd585e7247eE>:
 80006a6:	b081      	sub	sp, #4
 80006a8:	9000      	str	r0, [sp, #0]
 80006aa:	6800      	ldr	r0, [r0, #0]
 80006ac:	b001      	add	sp, #4
 80006ae:	4770      	bx	lr

080006b0 <_ZN95_$LT$futures_util..future..poll_fn..PollFn$LT$F$GT$$u20$as$u20$core..future..future..Future$GT$4poll17h3532856e956737f3E>:
 80006b0:	b580      	push	{r7, lr}
 80006b2:	466f      	mov	r7, sp
 80006b4:	b084      	sub	sp, #16
 80006b6:	9101      	str	r1, [sp, #4]
 80006b8:	9002      	str	r0, [sp, #8]
 80006ba:	9103      	str	r1, [sp, #12]
 80006bc:	a802      	add	r0, sp, #8
 80006be:	f00c fa0f 	bl	800cae0 <_ZN72_$LT$core..pin..Pin$LT$Ptr$GT$$u20$as$u20$core..ops..deref..DerefMut$GT$9deref_mut17hcf765d49aa536252E>
 80006c2:	9901      	ldr	r1, [sp, #4]
 80006c4:	f001 ff2f 	bl	8002526 <_ZN130_$LT$embassy_stm32..usb_otg..usb..Endpoint$LT$T$C$embassy_stm32..usb_otg..usb..Out$GT$$u20$as$u20$embassy_usb_driver..Endpoint$GT$12wait_enabled28_$u7b$$u7b$closure$u7d$$u7d$28_$u7b$$u7b$closure$u7d$$u7d$17h0fd90e07fda8cc0aE>
 80006c8:	b004      	add	sp, #16
 80006ca:	bd80      	pop	{r7, pc}

080006cc <_ZN95_$LT$futures_util..future..poll_fn..PollFn$LT$F$GT$$u20$as$u20$core..future..future..Future$GT$4poll17h4b49fd88100d1b7dE>:
 80006cc:	b580      	push	{r7, lr}
 80006ce:	466f      	mov	r7, sp
 80006d0:	b084      	sub	sp, #16
 80006d2:	9101      	str	r1, [sp, #4]
 80006d4:	9002      	str	r0, [sp, #8]
 80006d6:	9103      	str	r1, [sp, #12]
 80006d8:	a802      	add	r0, sp, #8
 80006da:	f00c f9d9 	bl	800ca90 <_ZN72_$LT$core..pin..Pin$LT$Ptr$GT$$u20$as$u20$core..ops..deref..DerefMut$GT$9deref_mut17h3fdd0fa79c437f2eE>
 80006de:	9901      	ldr	r1, [sp, #4]
 80006e0:	f002 faf9 	bl	8002cd6 <_ZN131_$LT$embassy_stm32..usb_otg..usb..Endpoint$LT$T$C$embassy_stm32..usb_otg..usb..In$GT$$u20$as$u20$embassy_usb_driver..EndpointIn$GT$5write28_$u7b$$u7b$closure$u7d$$u7d$28_$u7b$$u7b$closure$u7d$$u7d$17hcab9951f1b61423fE>
 80006e4:	b004      	add	sp, #16
 80006e6:	bd80      	pop	{r7, pc}

080006e8 <_ZN95_$LT$futures_util..future..poll_fn..PollFn$LT$F$GT$$u20$as$u20$core..future..future..Future$GT$4poll17h97825ba253c72ac8E>:
 80006e8:	b580      	push	{r7, lr}
 80006ea:	466f      	mov	r7, sp
 80006ec:	b084      	sub	sp, #16
 80006ee:	9101      	str	r1, [sp, #4]
 80006f0:	9002      	str	r0, [sp, #8]
 80006f2:	9103      	str	r1, [sp, #12]
 80006f4:	a802      	add	r0, sp, #8
 80006f6:	f00c f9df 	bl	800cab8 <_ZN72_$LT$core..pin..Pin$LT$Ptr$GT$$u20$as$u20$core..ops..deref..DerefMut$GT$9deref_mut17hc16e4cf829711d14E>
 80006fa:	9901      	ldr	r1, [sp, #4]
 80006fc:	f002 f9bf 	bl	8002a7e <_ZN131_$LT$embassy_stm32..usb_otg..usb..Endpoint$LT$T$C$embassy_stm32..usb_otg..usb..In$GT$$u20$as$u20$embassy_usb_driver..EndpointIn$GT$5write28_$u7b$$u7b$closure$u7d$$u7d$28_$u7b$$u7b$closure$u7d$$u7d$17h194ed67ee6606361E>
 8000700:	b004      	add	sp, #16
 8000702:	bd80      	pop	{r7, pc}

08000704 <_ZN95_$LT$futures_util..future..poll_fn..PollFn$LT$F$GT$$u20$as$u20$core..future..future..Future$GT$4poll17h9acb1dad6931c000E>:
 8000704:	b580      	push	{r7, lr}
 8000706:	466f      	mov	r7, sp
 8000708:	b084      	sub	sp, #16
 800070a:	9200      	str	r2, [sp, #0]
 800070c:	9001      	str	r0, [sp, #4]
 800070e:	9102      	str	r1, [sp, #8]
 8000710:	9203      	str	r2, [sp, #12]
 8000712:	a802      	add	r0, sp, #8
 8000714:	f00c f9c6 	bl	800caa4 <_ZN72_$LT$core..pin..Pin$LT$Ptr$GT$$u20$as$u20$core..ops..deref..DerefMut$GT$9deref_mut17h71d2f10f045a7f37E>
 8000718:	9a00      	ldr	r2, [sp, #0]
 800071a:	4601      	mov	r1, r0
 800071c:	9801      	ldr	r0, [sp, #4]
 800071e:	f001 f94b 	bl	80019b8 <_ZN101_$LT$embassy_stm32..usb_otg..usb..ControlPipe$LT$T$GT$$u20$as$u20$embassy_usb_driver..ControlPipe$GT$5setup28_$u7b$$u7b$closure$u7d$$u7d$28_$u7b$$u7b$closure$u7d$$u7d$17hbfabc39d77585263E>
 8000722:	b004      	add	sp, #16
 8000724:	bd80      	pop	{r7, pc}

08000726 <_ZN95_$LT$futures_util..future..poll_fn..PollFn$LT$F$GT$$u20$as$u20$core..future..future..Future$GT$4poll17hb218140e666505d2E>:
 8000726:	b580      	push	{r7, lr}
 8000728:	466f      	mov	r7, sp
 800072a:	b084      	sub	sp, #16
 800072c:	9101      	str	r1, [sp, #4]
 800072e:	9002      	str	r0, [sp, #8]
 8000730:	9103      	str	r1, [sp, #12]
 8000732:	a802      	add	r0, sp, #8
 8000734:	f00c f9ca 	bl	800cacc <_ZN72_$LT$core..pin..Pin$LT$Ptr$GT$$u20$as$u20$core..ops..deref..DerefMut$GT$9deref_mut17hc1e62b05c88b6c87E>
 8000738:	9901      	ldr	r1, [sp, #4]
 800073a:	f006 fafb 	bl	8006d34 <_ZN85_$LT$embassy_stm32..usb_otg..usb..Bus$LT$T$GT$$u20$as$u20$embassy_usb_driver..Bus$GT$4poll28_$u7b$$u7b$closure$u7d$$u7d$28_$u7b$$u7b$closure$u7d$$u7d$17hcb7ad8f0edcb94f8E>
 800073e:	b004      	add	sp, #16
 8000740:	bd80      	pop	{r7, pc}

08000742 <_ZN95_$LT$futures_util..future..poll_fn..PollFn$LT$F$GT$$u20$as$u20$core..future..future..Future$GT$4poll17hf182cabb8c35f0b7E>:
 8000742:	b580      	push	{r7, lr}
 8000744:	466f      	mov	r7, sp
 8000746:	b084      	sub	sp, #16
 8000748:	9200      	str	r2, [sp, #0]
 800074a:	9001      	str	r0, [sp, #4]
 800074c:	9102      	str	r1, [sp, #8]
 800074e:	9203      	str	r2, [sp, #12]
 8000750:	a802      	add	r0, sp, #8
 8000752:	f00c f993 	bl	800ca7c <_ZN72_$LT$core..pin..Pin$LT$Ptr$GT$$u20$as$u20$core..ops..deref..DerefMut$GT$9deref_mut17h3acab30bf1bef3cdE>
 8000756:	9a00      	ldr	r2, [sp, #0]
 8000758:	4601      	mov	r1, r0
 800075a:	9801      	ldr	r0, [sp, #4]
 800075c:	f002 fd2e 	bl	80031bc <_ZN133_$LT$embassy_stm32..usb_otg..usb..Endpoint$LT$T$C$embassy_stm32..usb_otg..usb..Out$GT$$u20$as$u20$embassy_usb_driver..EndpointOut$GT$4read28_$u7b$$u7b$closure$u7d$$u7d$28_$u7b$$u7b$closure$u7d$$u7d$17hb0d75ae9d0046dd5E>
 8000760:	b004      	add	sp, #16
 8000762:	bd80      	pop	{r7, pc}

08000764 <_ZN4core4bool22_$LT$impl$u20$bool$GT$4then17h7a3b8d40b77a130cE>:
 8000764:	b580      	push	{r7, lr}
 8000766:	466f      	mov	r7, sp
 8000768:	b084      	sub	sp, #16
 800076a:	f807 0c02 	strb.w	r0, [r7, #-2]
 800076e:	b918      	cbnz	r0, 8000778 <_ZN4core4bool22_$LT$impl$u20$bool$GT$4then17h7a3b8d40b77a130cE+0x14>
 8000770:	e7ff      	b.n	8000772 <_ZN4core4bool22_$LT$impl$u20$bool$GT$4then17h7a3b8d40b77a130cE+0xe>
 8000772:	2000      	movs	r0, #0
 8000774:	9001      	str	r0, [sp, #4]
 8000776:	e004      	b.n	8000782 <_ZN4core4bool22_$LT$impl$u20$bool$GT$4then17h7a3b8d40b77a130cE+0x1e>
 8000778:	f008 fd93 	bl	80092a2 <_ZN11embassy_usb18UsbDevice$LT$D$GT$17handle_control_in28_$u7b$$u7b$closure$u7d$$u7d$28_$u7b$$u7b$closure$u7d$$u7d$17habb662ad61b26b5eE>
 800077c:	9001      	str	r0, [sp, #4]
 800077e:	9102      	str	r1, [sp, #8]
 8000780:	e7ff      	b.n	8000782 <_ZN4core4bool22_$LT$impl$u20$bool$GT$4then17h7a3b8d40b77a130cE+0x1e>
 8000782:	9801      	ldr	r0, [sp, #4]
 8000784:	9902      	ldr	r1, [sp, #8]
 8000786:	b004      	add	sp, #16
 8000788:	bd80      	pop	{r7, pc}

0800078a <_ZN4core4bool22_$LT$impl$u20$bool$GT$4then17ha8e61d412904eeaeE>:
 800078a:	b580      	push	{r7, lr}
 800078c:	466f      	mov	r7, sp
 800078e:	b084      	sub	sp, #16
 8000790:	9100      	str	r1, [sp, #0]
 8000792:	f807 0c05 	strb.w	r0, [r7, #-5]
 8000796:	9103      	str	r1, [sp, #12]
 8000798:	b918      	cbnz	r0, 80007a2 <_ZN4core4bool22_$LT$impl$u20$bool$GT$4then17ha8e61d412904eeaeE+0x18>
 800079a:	e7ff      	b.n	800079c <_ZN4core4bool22_$LT$impl$u20$bool$GT$4then17ha8e61d412904eeaeE+0x12>
 800079c:	2000      	movs	r0, #0
 800079e:	9001      	str	r0, [sp, #4]
 80007a0:	e004      	b.n	80007ac <_ZN4core4bool22_$LT$impl$u20$bool$GT$4then17ha8e61d412904eeaeE+0x22>
 80007a2:	9800      	ldr	r0, [sp, #0]
 80007a4:	f00d fca1 	bl	800e0ea <_ZN16embassy_executor3raw22AvailableTask$LT$F$GT$5claim28_$u7b$$u7b$closure$u7d$$u7d$17hf9b3918600cf5e4dE>
 80007a8:	9001      	str	r0, [sp, #4]
 80007aa:	e7ff      	b.n	80007ac <_ZN4core4bool22_$LT$impl$u20$bool$GT$4then17ha8e61d412904eeaeE+0x22>
 80007ac:	9801      	ldr	r0, [sp, #4]
 80007ae:	b004      	add	sp, #16
 80007b0:	bd80      	pop	{r7, pc}

080007b2 <_ZN4core4bool22_$LT$impl$u20$bool$GT$4then17he7682c17dc6576d5E>:
 80007b2:	b580      	push	{r7, lr}
 80007b4:	466f      	mov	r7, sp
 80007b6:	b084      	sub	sp, #16
 80007b8:	9100      	str	r1, [sp, #0]
 80007ba:	f807 0c05 	strb.w	r0, [r7, #-5]
 80007be:	9103      	str	r1, [sp, #12]
 80007c0:	b918      	cbnz	r0, 80007ca <_ZN4core4bool22_$LT$impl$u20$bool$GT$4then17he7682c17dc6576d5E+0x18>
 80007c2:	e7ff      	b.n	80007c4 <_ZN4core4bool22_$LT$impl$u20$bool$GT$4then17he7682c17dc6576d5E+0x12>
 80007c4:	2000      	movs	r0, #0
 80007c6:	9001      	str	r0, [sp, #4]
 80007c8:	e004      	b.n	80007d4 <_ZN4core4bool22_$LT$impl$u20$bool$GT$4then17he7682c17dc6576d5E+0x22>
 80007ca:	9800      	ldr	r0, [sp, #0]
 80007cc:	f00d fc87 	bl	800e0de <_ZN16embassy_executor3raw22AvailableTask$LT$F$GT$5claim28_$u7b$$u7b$closure$u7d$$u7d$17hc9255fbf190567d7E>
 80007d0:	9001      	str	r0, [sp, #4]
 80007d2:	e7ff      	b.n	80007d4 <_ZN4core4bool22_$LT$impl$u20$bool$GT$4then17he7682c17dc6576d5E+0x22>
 80007d4:	9801      	ldr	r0, [sp, #4]
 80007d6:	b004      	add	sp, #16
 80007d8:	bd80      	pop	{r7, pc}

080007da <_ZN4core4cell13Cell$LT$T$GT$3get17h8bbd0c06fb44e0d2E>:
 80007da:	b082      	sub	sp, #8
 80007dc:	9000      	str	r0, [sp, #0]
 80007de:	9001      	str	r0, [sp, #4]
 80007e0:	6800      	ldr	r0, [r0, #0]
 80007e2:	b002      	add	sp, #8
 80007e4:	4770      	bx	lr

080007e6 <_ZN4core4cell13Cell$LT$T$GT$3set17h72f964b26976b00fE>:
 80007e6:	b085      	sub	sp, #20
 80007e8:	9000      	str	r0, [sp, #0]
 80007ea:	9101      	str	r1, [sp, #4]
 80007ec:	9002      	str	r0, [sp, #8]
 80007ee:	9003      	str	r0, [sp, #12]
 80007f0:	6802      	ldr	r2, [r0, #0]
 80007f2:	9204      	str	r2, [sp, #16]
 80007f4:	6001      	str	r1, [r0, #0]
 80007f6:	b005      	add	sp, #20
 80007f8:	4770      	bx	lr

080007fa <_ZN59_$LT$F$u20$as$u20$core..future..into_future..IntoFuture$GT$11into_future17h66fa9c9e3f3f377cE>:
 80007fa:	b580      	push	{r7, lr}
 80007fc:	466f      	mov	r7, sp
 80007fe:	2264      	movs	r2, #100	; 0x64
 8000800:	f025 f893 	bl	802592a <__aeabi_memcpy4>
 8000804:	bd80      	pop	{r7, pc}

08000806 <_ZN6client7message13usb_messaging17hcd6746fe6352b011E>:
 8000806:	b084      	sub	sp, #16
 8000808:	9100      	str	r1, [sp, #0]
 800080a:	4601      	mov	r1, r0
 800080c:	9800      	ldr	r0, [sp, #0]
 800080e:	9001      	str	r0, [sp, #4]
 8000810:	9202      	str	r2, [sp, #8]
 8000812:	9303      	str	r3, [sp, #12]
 8000814:	6008      	str	r0, [r1, #0]
 8000816:	604a      	str	r2, [r1, #4]
 8000818:	608b      	str	r3, [r1, #8]
 800081a:	2000      	movs	r0, #0
 800081c:	f881 0060 	strb.w	r0, [r1, #96]	; 0x60
 8000820:	b004      	add	sp, #16
 8000822:	4770      	bx	lr

08000824 <_ZN6client7message13usb_messaging28_$u7b$$u7b$closure$u7d$$u7d$17h9930ddddf9823cd5E>:
 8000824:	b580      	push	{r7, lr}
 8000826:	466f      	mov	r7, sp
 8000828:	b0bc      	sub	sp, #240	; 0xf0
 800082a:	9105      	str	r1, [sp, #20]
 800082c:	9006      	str	r0, [sp, #24]
 800082e:	9132      	str	r1, [sp, #200]	; 0xc8
 8000830:	9806      	ldr	r0, [sp, #24]
 8000832:	f890 0060 	ldrb.w	r0, [r0, #96]	; 0x60
 8000836:	b960      	cbnz	r0, 8000852 <_ZN6client7message13usb_messaging28_$u7b$$u7b$closure$u7d$$u7d$17h9930ddddf9823cd5E+0x2e>
 8000838:	e7ff      	b.n	800083a <_ZN6client7message13usb_messaging28_$u7b$$u7b$closure$u7d$$u7d$17h9930ddddf9823cd5E+0x16>
 800083a:	9805      	ldr	r0, [sp, #20]
 800083c:	9031      	str	r0, [sp, #196]	; 0xc4
 800083e:	9906      	ldr	r1, [sp, #24]
 8000840:	6808      	ldr	r0, [r1, #0]
 8000842:	60c8      	str	r0, [r1, #12]
 8000844:	9806      	ldr	r0, [sp, #24]
 8000846:	6840      	ldr	r0, [r0, #4]
 8000848:	9033      	str	r0, [sp, #204]	; 0xcc
 800084a:	9806      	ldr	r0, [sp, #24]
 800084c:	6880      	ldr	r0, [r0, #8]
 800084e:	9034      	str	r0, [sp, #208]	; 0xd0
 8000850:	e002      	b.n	8000858 <_ZN6client7message13usb_messaging28_$u7b$$u7b$closure$u7d$$u7d$17h9930ddddf9823cd5E+0x34>
 8000852:	9805      	ldr	r0, [sp, #20]
 8000854:	9031      	str	r0, [sp, #196]	; 0xc4
 8000856:	e01a      	b.n	800088e <_ZN6client7message13usb_messaging28_$u7b$$u7b$closure$u7d$$u7d$17h9930ddddf9823cd5E+0x6a>
 8000858:	f645 525c 	movw	r2, #23900	; 0x5d5c
 800085c:	f6c0 0202 	movt	r2, #2050	; 0x802
 8000860:	9239      	str	r2, [sp, #228]	; 0xe4
 8000862:	230e      	movs	r3, #14
 8000864:	933a      	str	r3, [sp, #232]	; 0xe8
 8000866:	9236      	str	r2, [sp, #216]	; 0xd8
 8000868:	9337      	str	r3, [sp, #220]	; 0xdc
 800086a:	9806      	ldr	r0, [sp, #24]
 800086c:	68c1      	ldr	r1, [r0, #12]
 800086e:	a81c      	add	r0, sp, #112	; 0x70
 8000870:	9003      	str	r0, [sp, #12]
 8000872:	f00b fa7e 	bl	800bd72 <_ZN11embassy_usb5class7cdc_acm20CdcAcmClass$LT$D$GT$12write_packet17hee0f8e670f93e901E>
 8000876:	9903      	ldr	r1, [sp, #12]
 8000878:	a808      	add	r0, sp, #32
 800087a:	9004      	str	r0, [sp, #16]
 800087c:	f00b fc97 	bl	800c1ae <_ZN59_$LT$F$u20$as$u20$core..future..into_future..IntoFuture$GT$11into_future17h4d97155740d04062E>
 8000880:	9904      	ldr	r1, [sp, #16]
 8000882:	9806      	ldr	r0, [sp, #24]
 8000884:	3010      	adds	r0, #16
 8000886:	2250      	movs	r2, #80	; 0x50
 8000888:	f025 f84f 	bl	802592a <__aeabi_memcpy4>
 800088c:	e7ff      	b.n	800088e <_ZN6client7message13usb_messaging28_$u7b$$u7b$closure$u7d$$u7d$17h9930ddddf9823cd5E+0x6a>
 800088e:	9806      	ldr	r0, [sp, #24]
 8000890:	3010      	adds	r0, #16
 8000892:	9038      	str	r0, [sp, #224]	; 0xe0
 8000894:	9931      	ldr	r1, [sp, #196]	; 0xc4
 8000896:	f00b fa7b 	bl	800bd90 <_ZN11embassy_usb5class7cdc_acm20CdcAcmClass$LT$D$GT$12write_packet28_$u7b$$u7b$closure$u7d$$u7d$17hf83815ab8fc0c86aE>
 800089a:	f807 0c2f 	strb.w	r0, [r7, #-47]
 800089e:	f817 0c2f 	ldrb.w	r0, [r7, #-47]
 80008a2:	2803      	cmp	r0, #3
 80008a4:	d02a      	beq.n	80008fc <_ZN6client7message13usb_messaging28_$u7b$$u7b$closure$u7d$$u7d$17h9930ddddf9823cd5E+0xd8>
 80008a6:	e7ff      	b.n	80008a8 <_ZN6client7message13usb_messaging28_$u7b$$u7b$closure$u7d$$u7d$17h9930ddddf9823cd5E+0x84>
 80008a8:	f817 0c2f 	ldrb.w	r0, [r7, #-47]
 80008ac:	9002      	str	r0, [sp, #8]
 80008ae:	f807 0c19 	strb.w	r0, [r7, #-25]
 80008b2:	9806      	ldr	r0, [sp, #24]
 80008b4:	3010      	adds	r0, #16
 80008b6:	f000 fd6f 	bl	8001398 <_ZN4core3ptr205drop_in_place$LT$embassy_usb..class..cdc_acm..CdcAcmClass$LT$embassy_stm32..usb_otg..usb..Driver$LT$embassy_stm32.._generated..peripherals..USB_OTG_FS$GT$$GT$..write_packet..$u7b$$u7b$closure$u7d$$u7d$$GT$17h0ff52076a054aae0E>
 80008ba:	9802      	ldr	r0, [sp, #8]
 80008bc:	f807 0c02 	strb.w	r0, [r7, #-2]
 80008c0:	f817 0c02 	ldrb.w	r0, [r7, #-2]
 80008c4:	2802      	cmp	r0, #2
 80008c6:	d018      	beq.n	80008fa <_ZN6client7message13usb_messaging28_$u7b$$u7b$closure$u7d$$u7d$17h9930ddddf9823cd5E+0xd6>
 80008c8:	e7ff      	b.n	80008ca <_ZN6client7message13usb_messaging28_$u7b$$u7b$closure$u7d$$u7d$17h9930ddddf9823cd5E+0xa6>
 80008ca:	f817 0c02 	ldrb.w	r0, [r7, #-2]
 80008ce:	f000 0001 	and.w	r0, r0, #1
 80008d2:	f807 0c01 	strb.w	r0, [r7, #-1]
 80008d6:	f645 504c 	movw	r0, #23884	; 0x5d4c
 80008da:	f6c0 0002 	movt	r0, #2050	; 0x802
 80008de:	4669      	mov	r1, sp
 80008e0:	6008      	str	r0, [r1, #0]
 80008e2:	f645 40f5 	movw	r0, #23797	; 0x5cf5
 80008e6:	f6c0 0002 	movt	r0, #2050	; 0x802
 80008ea:	f645 5320 	movw	r3, #23840	; 0x5d20
 80008ee:	f6c0 0302 	movt	r3, #2050	; 0x802
 80008f2:	212b      	movs	r1, #43	; 0x2b
 80008f4:	1e7a      	subs	r2, r7, #1
 80008f6:	f023 fb74 	bl	8023fe2 <_ZN4core6result13unwrap_failed17h7cf6f6617295e623E>
 80008fa:	e009      	b.n	8000910 <_ZN6client7message13usb_messaging28_$u7b$$u7b$closure$u7d$$u7d$17h9930ddddf9823cd5E+0xec>
 80008fc:	2003      	movs	r0, #3
 80008fe:	f807 0cd1 	strb.w	r0, [r7, #-209]
 8000902:	9906      	ldr	r1, [sp, #24]
 8000904:	f881 0060 	strb.w	r0, [r1, #96]	; 0x60
 8000908:	f817 0cd1 	ldrb.w	r0, [r7, #-209]
 800090c:	b03c      	add	sp, #240	; 0xf0
 800090e:	bd80      	pop	{r7, pc}
 8000910:	f013 fbe7 	bl	80140e2 <_defmt_acquire>
 8000914:	f240 000c 	movw	r0, #12
 8000918:	f2c0 0000 	movt	r0, #0
 800091c:	f023 f866 	bl	80239ec <_ZN5defmt6export9make_istr17hc00a4ef463faf312E>
 8000920:	f827 0c2e 	strh.w	r0, [r7, #-46]
 8000924:	f1a7 002e 	sub.w	r0, r7, #46	; 0x2e
 8000928:	f023 f8cc 	bl	8023ac4 <_ZN5defmt6export6header17hc8d48e1d45da2002E>
 800092c:	f013 fbde 	bl	80140ec <_defmt_release>
 8000930:	e792      	b.n	8000858 <_ZN6client7message13usb_messaging28_$u7b$$u7b$closure$u7d$$u7d$17h9930ddddf9823cd5E+0x34>

08000932 <_ZN4core4task4wake7Context10from_waker17h6a96117c6e60773aE>:
 8000932:	b087      	sub	sp, #28
 8000934:	460a      	mov	r2, r1
 8000936:	4601      	mov	r1, r0
 8000938:	f645 5084 	movw	r0, #23940	; 0x5d84
 800093c:	f6c0 0002 	movt	r0, #2050	; 0x802
 8000940:	f8d0 c000 	ldr.w	ip, [r0]
 8000944:	6843      	ldr	r3, [r0, #4]
 8000946:	f8cd c000 	str.w	ip, [sp]
 800094a:	9301      	str	r3, [sp, #4]
 800094c:	f8d0 c000 	ldr.w	ip, [r0]
 8000950:	6843      	ldr	r3, [r0, #4]
 8000952:	f8cd c008 	str.w	ip, [sp, #8]
 8000956:	9303      	str	r3, [sp, #12]
 8000958:	9205      	str	r2, [sp, #20]
 800095a:	9206      	str	r2, [sp, #24]
 800095c:	600a      	str	r2, [r1, #0]
 800095e:	604a      	str	r2, [r1, #4]
 8000960:	6802      	ldr	r2, [r0, #0]
 8000962:	6840      	ldr	r0, [r0, #4]
 8000964:	608a      	str	r2, [r1, #8]
 8000966:	60c8      	str	r0, [r1, #12]
 8000968:	b007      	add	sp, #28
 800096a:	4770      	bx	lr

0800096c <_ZN4core4task4wake7Context5waker17h4c3c98630f0ba8d3E>:
 800096c:	b081      	sub	sp, #4
 800096e:	9000      	str	r0, [sp, #0]
 8000970:	6800      	ldr	r0, [r0, #0]
 8000972:	b001      	add	sp, #4
 8000974:	4770      	bx	lr

08000976 <_ZN4core4char7convert18from_u32_unchecked18precondition_check17h2673d2daf56b212dE>:
 8000976:	b580      	push	{r7, lr}
 8000978:	466f      	mov	r7, sp
 800097a:	b086      	sub	sp, #24
 800097c:	9000      	str	r0, [sp, #0]
 800097e:	f44f 6100 	mov.w	r1, #2048	; 0x800
 8000982:	9101      	str	r1, [sp, #4]
 8000984:	9003      	str	r0, [sp, #12]
 8000986:	f480 4058 	eor.w	r0, r0, #55296	; 0xd800
 800098a:	9004      	str	r0, [sp, #16]
 800098c:	f5a0 6000 	sub.w	r0, r0, #2048	; 0x800
 8000990:	f24f 71ff 	movw	r1, #63487	; 0xf7ff
 8000994:	f2c0 0110 	movt	r1, #16
 8000998:	4288      	cmp	r0, r1
 800099a:	d803      	bhi.n	80009a4 <_ZN4core4char7convert18from_u32_unchecked18precondition_check17h2673d2daf56b212dE+0x2e>
 800099c:	e7ff      	b.n	800099e <_ZN4core4char7convert18from_u32_unchecked18precondition_check17h2673d2daf56b212dE+0x28>
 800099e:	9800      	ldr	r0, [sp, #0]
 80009a0:	9002      	str	r0, [sp, #8]
 80009a2:	e003      	b.n	80009ac <_ZN4core4char7convert18from_u32_unchecked18precondition_check17h2673d2daf56b212dE+0x36>
 80009a4:	f44f 1088 	mov.w	r0, #1114112	; 0x110000
 80009a8:	9002      	str	r0, [sp, #8]
 80009aa:	e7ff      	b.n	80009ac <_ZN4core4char7convert18from_u32_unchecked18precondition_check17h2673d2daf56b212dE+0x36>
 80009ac:	a802      	add	r0, sp, #8
 80009ae:	9005      	str	r0, [sp, #20]
 80009b0:	9802      	ldr	r0, [sp, #8]
 80009b2:	f5b0 1f88 	cmp.w	r0, #1114112	; 0x110000
 80009b6:	d002      	beq.n	80009be <_ZN4core4char7convert18from_u32_unchecked18precondition_check17h2673d2daf56b212dE+0x48>
 80009b8:	e7ff      	b.n	80009ba <_ZN4core4char7convert18from_u32_unchecked18precondition_check17h2673d2daf56b212dE+0x44>
 80009ba:	b006      	add	sp, #24
 80009bc:	bd80      	pop	{r7, pc}
 80009be:	f645 5094 	movw	r0, #23956	; 0x5d94
 80009c2:	f6c0 0002 	movt	r0, #2050	; 0x802
 80009c6:	2139      	movs	r1, #57	; 0x39
 80009c8:	f023 fa53 	bl	8023e72 <_ZN4core9panicking14panic_nounwind17hfaec30b00873b2ceE>

080009cc <_ZN16embassy_executor7spawner19SpawnToken$LT$S$GT$10new_failed17h0d8428a6e147470fE>:
 80009cc:	b081      	sub	sp, #4
 80009ce:	2000      	movs	r0, #0
 80009d0:	9000      	str	r0, [sp, #0]
 80009d2:	9800      	ldr	r0, [sp, #0]
 80009d4:	b001      	add	sp, #4
 80009d6:	4770      	bx	lr

080009d8 <_ZN16embassy_executor7spawner19SpawnToken$LT$S$GT$10new_failed17h21e53ea7312dfdefE>:
 80009d8:	b081      	sub	sp, #4
 80009da:	2000      	movs	r0, #0
 80009dc:	9000      	str	r0, [sp, #0]
 80009de:	9800      	ldr	r0, [sp, #0]
 80009e0:	b001      	add	sp, #4
 80009e2:	4770      	bx	lr

080009e4 <_ZN16embassy_executor7spawner19SpawnToken$LT$S$GT$3new17hbf8d63077a75dc03E>:
 80009e4:	b082      	sub	sp, #8
 80009e6:	9001      	str	r0, [sp, #4]
 80009e8:	9000      	str	r0, [sp, #0]
 80009ea:	9800      	ldr	r0, [sp, #0]
 80009ec:	b002      	add	sp, #8
 80009ee:	4770      	bx	lr

080009f0 <_ZN16embassy_executor7spawner19SpawnToken$LT$S$GT$3new17hf6385aa19214a65aE>:
 80009f0:	b082      	sub	sp, #8
 80009f2:	9001      	str	r0, [sp, #4]
 80009f4:	9000      	str	r0, [sp, #0]
 80009f6:	9800      	ldr	r0, [sp, #0]
 80009f8:	b002      	add	sp, #8
 80009fa:	4770      	bx	lr

080009fc <_ZN16embassy_executor7spawner7Spawner10must_spawn17he0f2998e0f7b7dacE>:
 80009fc:	b580      	push	{r7, lr}
 80009fe:	466f      	mov	r7, sp
 8000a00:	b086      	sub	sp, #24
 8000a02:	9003      	str	r0, [sp, #12]
 8000a04:	9104      	str	r1, [sp, #16]
 8000a06:	f000 f849 	bl	8000a9c <_ZN16embassy_executor7spawner7Spawner5spawn17hb63b257c6fa081f6E>
 8000a0a:	f000 f86a 	bl	8000ae2 <_ZN5defmt6export11into_result17ha2627d38358f25a3E>
 8000a0e:	f88d 0008 	strb.w	r0, [sp, #8]
 8000a12:	f89d 0008 	ldrb.w	r0, [sp, #8]
 8000a16:	07c0      	lsls	r0, r0, #31
 8000a18:	b910      	cbnz	r0, 8000a20 <_ZN16embassy_executor7spawner7Spawner10must_spawn17he0f2998e0f7b7dacE+0x24>
 8000a1a:	e7ff      	b.n	8000a1c <_ZN16embassy_executor7spawner7Spawner10must_spawn17he0f2998e0f7b7dacE+0x20>
 8000a1c:	b006      	add	sp, #24
 8000a1e:	bd80      	pop	{r7, pc}
 8000a20:	f1a7 000f 	sub.w	r0, r7, #15
 8000a24:	9005      	str	r0, [sp, #20]
 8000a26:	e7ff      	b.n	8000a28 <_ZN16embassy_executor7spawner7Spawner10must_spawn17he0f2998e0f7b7dacE+0x2c>
 8000a28:	f013 fb5b 	bl	80140e2 <_defmt_acquire>
 8000a2c:	f240 0015 	movw	r0, #21
 8000a30:	f2c0 0000 	movt	r0, #0
 8000a34:	f022 ffda 	bl	80239ec <_ZN5defmt6export9make_istr17hc00a4ef463faf312E>
 8000a38:	f827 0c0e 	strh.w	r0, [r7, #-14]
 8000a3c:	f1a7 000e 	sub.w	r0, r7, #14
 8000a40:	f023 f840 	bl	8023ac4 <_ZN5defmt6export6header17hc8d48e1d45da2002E>
 8000a44:	f1a7 000f 	sub.w	r0, r7, #15
 8000a48:	f000 f865 	bl	8000b16 <_ZN5defmt6export3fmt17h706dd16a576ea8c3E>
 8000a4c:	f013 fb4e 	bl	80140ec <_defmt_release>
 8000a50:	e7ff      	b.n	8000a52 <_ZN16embassy_executor7spawner7Spawner10must_spawn17he0f2998e0f7b7dacE+0x56>
 8000a52:	f023 f861 	bl	8023b18 <__defmt_default_panic>

08000a56 <_ZN16embassy_executor7spawner7Spawner5spawn17h51ca14d908904759E>:
 8000a56:	b580      	push	{r7, lr}
 8000a58:	466f      	mov	r7, sp
 8000a5a:	b088      	sub	sp, #32
 8000a5c:	9101      	str	r1, [sp, #4]
 8000a5e:	4601      	mov	r1, r0
 8000a60:	9801      	ldr	r0, [sp, #4]
 8000a62:	9102      	str	r1, [sp, #8]
 8000a64:	9105      	str	r1, [sp, #20]
 8000a66:	9006      	str	r0, [sp, #24]
 8000a68:	9004      	str	r0, [sp, #16]
 8000a6a:	f00e fb28 	bl	800f0be <_ZN4core3mem6forget17h18c19e5f6df93739E>
 8000a6e:	9804      	ldr	r0, [sp, #16]
 8000a70:	b920      	cbnz	r0, 8000a7c <_ZN16embassy_executor7spawner7Spawner5spawn17h51ca14d908904759E+0x26>
 8000a72:	e7ff      	b.n	8000a74 <_ZN16embassy_executor7spawner7Spawner5spawn17h51ca14d908904759E+0x1e>
 8000a74:	2001      	movs	r0, #1
 8000a76:	f807 0c11 	strb.w	r0, [r7, #-17]
 8000a7a:	e009      	b.n	8000a90 <_ZN16embassy_executor7spawner7Spawner5spawn17h51ca14d908904759E+0x3a>
 8000a7c:	9802      	ldr	r0, [sp, #8]
 8000a7e:	9904      	ldr	r1, [sp, #16]
 8000a80:	9107      	str	r1, [sp, #28]
 8000a82:	6800      	ldr	r0, [r0, #0]
 8000a84:	f012 f8f6 	bl	8012c74 <_ZN16embassy_executor3raw8Executor5spawn17h754a9431ccd5d2aaE>
 8000a88:	2000      	movs	r0, #0
 8000a8a:	f807 0c11 	strb.w	r0, [r7, #-17]
 8000a8e:	e7ff      	b.n	8000a90 <_ZN16embassy_executor7spawner7Spawner5spawn17h51ca14d908904759E+0x3a>
 8000a90:	f817 0c11 	ldrb.w	r0, [r7, #-17]
 8000a94:	f000 0001 	and.w	r0, r0, #1
 8000a98:	b008      	add	sp, #32
 8000a9a:	bd80      	pop	{r7, pc}

08000a9c <_ZN16embassy_executor7spawner7Spawner5spawn17hb63b257c6fa081f6E>:
 8000a9c:	b580      	push	{r7, lr}
 8000a9e:	466f      	mov	r7, sp
 8000aa0:	b088      	sub	sp, #32
 8000aa2:	9101      	str	r1, [sp, #4]
 8000aa4:	4601      	mov	r1, r0
 8000aa6:	9801      	ldr	r0, [sp, #4]
 8000aa8:	9102      	str	r1, [sp, #8]
 8000aaa:	9105      	str	r1, [sp, #20]
 8000aac:	9006      	str	r0, [sp, #24]
 8000aae:	9004      	str	r0, [sp, #16]
 8000ab0:	f00e fb0e 	bl	800f0d0 <_ZN4core3mem6forget17h7daba2704ec7d7f6E>
 8000ab4:	9804      	ldr	r0, [sp, #16]
 8000ab6:	b920      	cbnz	r0, 8000ac2 <_ZN16embassy_executor7spawner7Spawner5spawn17hb63b257c6fa081f6E+0x26>
 8000ab8:	e7ff      	b.n	8000aba <_ZN16embassy_executor7spawner7Spawner5spawn17hb63b257c6fa081f6E+0x1e>
 8000aba:	2001      	movs	r0, #1
 8000abc:	f807 0c11 	strb.w	r0, [r7, #-17]
 8000ac0:	e009      	b.n	8000ad6 <_ZN16embassy_executor7spawner7Spawner5spawn17hb63b257c6fa081f6E+0x3a>
 8000ac2:	9802      	ldr	r0, [sp, #8]
 8000ac4:	9904      	ldr	r1, [sp, #16]
 8000ac6:	9107      	str	r1, [sp, #28]
 8000ac8:	6800      	ldr	r0, [r0, #0]
 8000aca:	f012 f8d3 	bl	8012c74 <_ZN16embassy_executor3raw8Executor5spawn17h754a9431ccd5d2aaE>
 8000ace:	2000      	movs	r0, #0
 8000ad0:	f807 0c11 	strb.w	r0, [r7, #-17]
 8000ad4:	e7ff      	b.n	8000ad6 <_ZN16embassy_executor7spawner7Spawner5spawn17hb63b257c6fa081f6E+0x3a>
 8000ad6:	f817 0c11 	ldrb.w	r0, [r7, #-17]
 8000ada:	f000 0001 	and.w	r0, r0, #1
 8000ade:	b008      	add	sp, #32
 8000ae0:	bd80      	pop	{r7, pc}

08000ae2 <_ZN5defmt6export11into_result17ha2627d38358f25a3E>:
 8000ae2:	b580      	push	{r7, lr}
 8000ae4:	466f      	mov	r7, sp
 8000ae6:	b082      	sub	sp, #8
 8000ae8:	f807 0c01 	strb.w	r0, [r7, #-1]
 8000aec:	f00f fc63 	bl	80103b6 <_ZN87_$LT$core..result..Result$LT$T$C$E$GT$$u20$as$u20$defmt..export..traits..IntoResult$GT$11into_result17he451902bc676b469E>
 8000af0:	b002      	add	sp, #8
 8000af2:	bd80      	pop	{r7, pc}

08000af4 <_ZN5defmt6export3fmt17h3528a5f42c0675dcE>:
 8000af4:	b580      	push	{r7, lr}
 8000af6:	466f      	mov	r7, sp
 8000af8:	b084      	sub	sp, #16
 8000afa:	9001      	str	r0, [sp, #4]
 8000afc:	9003      	str	r0, [sp, #12]
 8000afe:	f021 fb11 	bl	8022124 <_ZN75_$LT$embassy_usb_driver..EndpointError$u20$as$u20$defmt..traits..Format$GT$11_format_tag17h0ebb91ea6082d890E>
 8000b02:	f827 0c06 	strh.w	r0, [r7, #-6]
 8000b06:	1fb8      	subs	r0, r7, #6
 8000b08:	f022 ff87 	bl	8023a1a <_ZN5defmt6export4istr17hb3f70a935242b7c7E>
 8000b0c:	9801      	ldr	r0, [sp, #4]
 8000b0e:	f021 fb12 	bl	8022136 <_ZN75_$LT$embassy_usb_driver..EndpointError$u20$as$u20$defmt..traits..Format$GT$12_format_data17h78fa2e5e1322f6f1E>
 8000b12:	b004      	add	sp, #16
 8000b14:	bd80      	pop	{r7, pc}

08000b16 <_ZN5defmt6export3fmt17h706dd16a576ea8c3E>:
 8000b16:	b580      	push	{r7, lr}
 8000b18:	466f      	mov	r7, sp
 8000b1a:	b084      	sub	sp, #16
 8000b1c:	9001      	str	r0, [sp, #4]
 8000b1e:	9003      	str	r0, [sp, #12]
 8000b20:	f012 f9c4 	bl	8012eac <_ZN79_$LT$embassy_executor..spawner..SpawnError$u20$as$u20$defmt..traits..Format$GT$11_format_tag17h8821e9aa35541ac8E>
 8000b24:	f827 0c06 	strh.w	r0, [r7, #-6]
 8000b28:	1fb8      	subs	r0, r7, #6
 8000b2a:	f022 ff76 	bl	8023a1a <_ZN5defmt6export4istr17hb3f70a935242b7c7E>
 8000b2e:	9801      	ldr	r0, [sp, #4]
 8000b30:	f012 f9c5 	bl	8012ebe <_ZN79_$LT$embassy_executor..spawner..SpawnError$u20$as$u20$defmt..traits..Format$GT$12_format_data17hf71077df3272a5b5E>
 8000b34:	b004      	add	sp, #16
 8000b36:	bd80      	pop	{r7, pc}

08000b38 <_ZN16embassy_executor7_export11TaskPoolRef3get17h1ba11ec13944c2b5E>:
 8000b38:	b580      	push	{r7, lr}
 8000b3a:	466f      	mov	r7, sp
 8000b3c:	b082      	sub	sp, #8
 8000b3e:	9001      	str	r0, [sp, #4]
 8000b40:	f7ff fc1b 	bl	800037a <_ZN16critical_section4with17h7784838d379d6d27E>
 8000b44:	b002      	add	sp, #8
 8000b46:	bd80      	pop	{r7, pc}

08000b48 <_ZN16embassy_executor7_export11TaskPoolRef3get17hae186e62c4f88730E>:
 8000b48:	b580      	push	{r7, lr}
 8000b4a:	466f      	mov	r7, sp
 8000b4c:	b082      	sub	sp, #8
 8000b4e:	9001      	str	r0, [sp, #4]
 8000b50:	f7ff fcca 	bl	80004e8 <_ZN16critical_section4with17hbff2e71294993236E>
 8000b54:	b002      	add	sp, #8
 8000b56:	bd80      	pop	{r7, pc}

08000b58 <_ZN16embassy_executor7_export11TaskPoolRef3get28_$u7b$$u7b$closure$u7d$$u7d$17hb6004bf289131273E>:
 8000b58:	b5b0      	push	{r4, r5, r7, lr}
 8000b5a:	af02      	add	r7, sp, #8
 8000b5c:	f5ad 5d0f 	sub.w	sp, sp, #9152	; 0x23c0
 8000b60:	b086      	sub	sp, #24
 8000b62:	9007      	str	r0, [sp, #28]
 8000b64:	9807      	ldr	r0, [sp, #28]
 8000b66:	f009 fca7 	bl	800a4b8 <_ZN16critical_section5mutex14Mutex$LT$T$GT$6borrow17h09f4419450382dfcE>
 8000b6a:	4601      	mov	r1, r0
 8000b6c:	9105      	str	r1, [sp, #20]
 8000b6e:	f8cd 0c08 	str.w	r0, [sp, #3080]	; 0xc08
 8000b72:	f01e ff6a 	bl	801fa4a <_ZN4core4cell13Cell$LT$T$GT$3get17hc7fe602db440fcccE>
 8000b76:	f00e fbf8 	bl	800f36a <_ZN4core3ptr7mut_ptr31_$LT$impl$u20$$BP$mut$u20$T$GT$7is_null17h8c81faa15e18f8c6E>
 8000b7a:	b938      	cbnz	r0, 8000b8c <_ZN16embassy_executor7_export11TaskPoolRef3get28_$u7b$$u7b$closure$u7d$$u7d$17hb6004bf289131273E+0x34>
 8000b7c:	e7ff      	b.n	8000b7e <_ZN16embassy_executor7_export11TaskPoolRef3get28_$u7b$$u7b$closure$u7d$$u7d$17hb6004bf289131273E+0x26>
 8000b7e:	9805      	ldr	r0, [sp, #20]
 8000b80:	f01e ff63 	bl	801fa4a <_ZN4core4cell13Cell$LT$T$GT$3get17hc7fe602db440fcccE>
 8000b84:	f50d 5d0f 	add.w	sp, sp, #9152	; 0x23c0
 8000b88:	b006      	add	sp, #24
 8000b8a:	bdb0      	pop	{r4, r5, r7, pc}
 8000b8c:	f240 3014 	movw	r0, #788	; 0x314
 8000b90:	f2c2 0000 	movt	r0, #8192	; 0x2000
 8000b94:	f000 f87c 	bl	8000c90 <_ZN16embassy_executor7_export14Arena$LT$_$GT$5alloc17hd88d02d48ed6e409E>
 8000b98:	9004      	str	r0, [sp, #16]
 8000b9a:	f8cd 0c0c 	str.w	r0, [sp, #3084]	; 0xc0c
 8000b9e:	a808      	add	r0, sp, #32
 8000ba0:	9000      	str	r0, [sp, #0]
 8000ba2:	f00d f99e 	bl	800dee2 <_ZN16embassy_executor3raw21TaskPool$LT$F$C$_$GT$3new17h299f5698c1ae752fE>
 8000ba6:	9900      	ldr	r1, [sp, #0]
 8000ba8:	9804      	ldr	r0, [sp, #16]
 8000baa:	f847 0c0c 	str.w	r0, [r7, #-12]
 8000bae:	f10d 0e10 	add.w	lr, sp, #16
 8000bb2:	f50e 50bf 	add.w	r0, lr, #6112	; 0x17e0
 8000bb6:	9001      	str	r0, [sp, #4]
 8000bb8:	f44f 623e 	mov.w	r2, #3040	; 0xbe0
 8000bbc:	9203      	str	r2, [sp, #12]
 8000bbe:	f024 feb2 	bl	8025926 <__aeabi_memcpy8>
 8000bc2:	9901      	ldr	r1, [sp, #4]
 8000bc4:	9a03      	ldr	r2, [sp, #12]
 8000bc6:	f50d 6041 	add.w	r0, sp, #3088	; 0xc10
 8000bca:	9002      	str	r0, [sp, #8]
 8000bcc:	f024 feab 	bl	8025926 <__aeabi_memcpy8>
 8000bd0:	9902      	ldr	r1, [sp, #8]
 8000bd2:	9a03      	ldr	r2, [sp, #12]
 8000bd4:	9804      	ldr	r0, [sp, #16]
 8000bd6:	f024 fea6 	bl	8025926 <__aeabi_memcpy8>
 8000bda:	9805      	ldr	r0, [sp, #20]
 8000bdc:	9904      	ldr	r1, [sp, #16]
 8000bde:	f01e ff4a 	bl	801fa76 <_ZN4core4cell13Cell$LT$T$GT$3set17h8d7be348546cdef8E>
 8000be2:	e7cc      	b.n	8000b7e <_ZN16embassy_executor7_export11TaskPoolRef3get28_$u7b$$u7b$closure$u7d$$u7d$17hb6004bf289131273E+0x26>

08000be4 <_ZN16embassy_executor7_export11TaskPoolRef3get28_$u7b$$u7b$closure$u7d$$u7d$17hb79522998afb9568E>:
 8000be4:	b5f0      	push	{r4, r5, r6, r7, lr}
 8000be6:	af03      	add	r7, sp, #12
 8000be8:	f84d 8d04 	str.w	r8, [sp, #-4]!
 8000bec:	b0b6      	sub	sp, #216	; 0xd8
 8000bee:	9005      	str	r0, [sp, #20]
 8000bf0:	9805      	ldr	r0, [sp, #20]
 8000bf2:	f009 fc61 	bl	800a4b8 <_ZN16critical_section5mutex14Mutex$LT$T$GT$6borrow17h09f4419450382dfcE>
 8000bf6:	4601      	mov	r1, r0
 8000bf8:	9103      	str	r1, [sp, #12]
 8000bfa:	9016      	str	r0, [sp, #88]	; 0x58
 8000bfc:	f01e ff25 	bl	801fa4a <_ZN4core4cell13Cell$LT$T$GT$3get17hc7fe602db440fcccE>
 8000c00:	f00e fbb3 	bl	800f36a <_ZN4core3ptr7mut_ptr31_$LT$impl$u20$$BP$mut$u20$T$GT$7is_null17h8c81faa15e18f8c6E>
 8000c04:	b938      	cbnz	r0, 8000c16 <_ZN16embassy_executor7_export11TaskPoolRef3get28_$u7b$$u7b$closure$u7d$$u7d$17hb79522998afb9568E+0x32>
 8000c06:	e7ff      	b.n	8000c08 <_ZN16embassy_executor7_export11TaskPoolRef3get28_$u7b$$u7b$closure$u7d$$u7d$17hb79522998afb9568E+0x24>
 8000c08:	9803      	ldr	r0, [sp, #12]
 8000c0a:	f01e ff1e 	bl	801fa4a <_ZN4core4cell13Cell$LT$T$GT$3get17hc7fe602db440fcccE>
 8000c0e:	b036      	add	sp, #216	; 0xd8
 8000c10:	f85d 8b04 	ldr.w	r8, [sp], #4
 8000c14:	bdf0      	pop	{r4, r5, r6, r7, pc}
 8000c16:	f240 3014 	movw	r0, #788	; 0x314
 8000c1a:	f2c2 0000 	movt	r0, #8192	; 0x2000
 8000c1e:	f000 f8d8 	bl	8000dd2 <_ZN16embassy_executor7_export14Arena$LT$_$GT$5alloc17hdd3b62bb4b1f028dE>
 8000c22:	9002      	str	r0, [sp, #8]
 8000c24:	9017      	str	r0, [sp, #92]	; 0x5c
 8000c26:	a806      	add	r0, sp, #24
 8000c28:	9001      	str	r0, [sp, #4]
 8000c2a:	f00d f97f 	bl	800df2c <_ZN16embassy_executor3raw21TaskPool$LT$F$C$_$GT$3new17hffbeb29f2b5a9db0E>
 8000c2e:	9b01      	ldr	r3, [sp, #4]
 8000c30:	9803      	ldr	r0, [sp, #12]
 8000c32:	9902      	ldr	r1, [sp, #8]
 8000c34:	9135      	str	r1, [sp, #212]	; 0xd4
 8000c36:	f10d 0c98 	add.w	ip, sp, #152	; 0x98
 8000c3a:	4662      	mov	r2, ip
 8000c3c:	e8b3 4070 	ldmia.w	r3!, {r4, r5, r6, lr}
 8000c40:	e8a2 4070 	stmia.w	r2!, {r4, r5, r6, lr}
 8000c44:	e8b3 4170 	ldmia.w	r3!, {r4, r5, r6, r8, lr}
 8000c48:	e8a2 4170 	stmia.w	r2!, {r4, r5, r6, r8, lr}
 8000c4c:	e893 4170 	ldmia.w	r3, {r4, r5, r6, r8, lr}
 8000c50:	e882 4170 	stmia.w	r2, {r4, r5, r6, r8, lr}
 8000c54:	ab18      	add	r3, sp, #96	; 0x60
 8000c56:	461a      	mov	r2, r3
 8000c58:	e8bc 4070 	ldmia.w	ip!, {r4, r5, r6, lr}
 8000c5c:	e8a2 4070 	stmia.w	r2!, {r4, r5, r6, lr}
 8000c60:	e8bc 4170 	ldmia.w	ip!, {r4, r5, r6, r8, lr}
 8000c64:	e8a2 4170 	stmia.w	r2!, {r4, r5, r6, r8, lr}
 8000c68:	e89c 4170 	ldmia.w	ip, {r4, r5, r6, r8, lr}
 8000c6c:	e882 4170 	stmia.w	r2, {r4, r5, r6, r8, lr}
 8000c70:	460a      	mov	r2, r1
 8000c72:	e8b3 5030 	ldmia.w	r3!, {r4, r5, ip, lr}
 8000c76:	e8a2 5030 	stmia.w	r2!, {r4, r5, ip, lr}
 8000c7a:	e8b3 5070 	ldmia.w	r3!, {r4, r5, r6, ip, lr}
 8000c7e:	e8a2 5070 	stmia.w	r2!, {r4, r5, r6, ip, lr}
 8000c82:	e893 5070 	ldmia.w	r3, {r4, r5, r6, ip, lr}
 8000c86:	e882 5070 	stmia.w	r2, {r4, r5, r6, ip, lr}
 8000c8a:	f01e fef4 	bl	801fa76 <_ZN4core4cell13Cell$LT$T$GT$3set17h8d7be348546cdef8E>
 8000c8e:	e7bb      	b.n	8000c08 <_ZN16embassy_executor7_export11TaskPoolRef3get28_$u7b$$u7b$closure$u7d$$u7d$17hb79522998afb9568E+0x24>

08000c90 <_ZN16embassy_executor7_export14Arena$LT$_$GT$5alloc17hd88d02d48ed6e409E>:
 8000c90:	b580      	push	{r7, lr}
 8000c92:	466f      	mov	r7, sp
 8000c94:	b0a2      	sub	sp, #136	; 0x88
 8000c96:	9009      	str	r0, [sp, #36]	; 0x24
 8000c98:	9010      	str	r0, [sp, #64]	; 0x40
 8000c9a:	f00e fccb 	bl	800f634 <_ZN4core5alloc6layout6Layout3new17hd27f8a914d241682E>
 8000c9e:	4602      	mov	r2, r0
 8000ca0:	9809      	ldr	r0, [sp, #36]	; 0x24
 8000ca2:	920c      	str	r2, [sp, #48]	; 0x30
 8000ca4:	910d      	str	r1, [sp, #52]	; 0x34
 8000ca6:	9021      	str	r0, [sp, #132]	; 0x84
 8000ca8:	901f      	str	r0, [sp, #124]	; 0x7c
 8000caa:	9012      	str	r0, [sp, #72]	; 0x48
 8000cac:	901c      	str	r0, [sp, #112]	; 0x70
 8000cae:	f44f 4100 	mov.w	r1, #32768	; 0x8000
 8000cb2:	911d      	str	r1, [sp, #116]	; 0x74
 8000cb4:	f500 4000 	add.w	r0, r0, #32768	; 0x8000
 8000cb8:	4601      	mov	r1, r0
 8000cba:	910a      	str	r1, [sp, #40]	; 0x28
 8000cbc:	9013      	str	r0, [sp, #76]	; 0x4c
 8000cbe:	f009 fc00 	bl	800a4c2 <_ZN16critical_section5mutex14Mutex$LT$T$GT$6borrow17h51534ec16411e4f0E>
 8000cc2:	f7ff fd8a 	bl	80007da <_ZN4core4cell13Cell$LT$T$GT$3get17h8bbd0c06fb44e0d2E>
 8000cc6:	900e      	str	r0, [sp, #56]	; 0x38
 8000cc8:	980e      	ldr	r0, [sp, #56]	; 0x38
 8000cca:	f010 fa68 	bl	801119e <_ZN4core3ptr7mut_ptr31_$LT$impl$u20$$BP$mut$u20$T$GT$7is_null17ha168b150e922b823E>
 8000cce:	b938      	cbnz	r0, 8000ce0 <_ZN16embassy_executor7_export14Arena$LT$_$GT$5alloc17hd88d02d48ed6e409E+0x50>
 8000cd0:	e7ff      	b.n	8000cd2 <_ZN16embassy_executor7_export14Arena$LT$_$GT$5alloc17hd88d02d48ed6e409E+0x42>
 8000cd2:	980a      	ldr	r0, [sp, #40]	; 0x28
 8000cd4:	990e      	ldr	r1, [sp, #56]	; 0x38
 8000cd6:	1a42      	subs	r2, r0, r1
 8000cd8:	9208      	str	r2, [sp, #32]
 8000cda:	4288      	cmp	r0, r1
 8000cdc:	d316      	bcc.n	8000d0c <_ZN16embassy_executor7_export14Arena$LT$_$GT$5alloc17hd88d02d48ed6e409E+0x7c>
 8000cde:	e004      	b.n	8000cea <_ZN16embassy_executor7_export14Arena$LT$_$GT$5alloc17hd88d02d48ed6e409E+0x5a>
 8000ce0:	9809      	ldr	r0, [sp, #36]	; 0x24
 8000ce2:	9020      	str	r0, [sp, #128]	; 0x80
 8000ce4:	901e      	str	r0, [sp, #120]	; 0x78
 8000ce6:	900e      	str	r0, [sp, #56]	; 0x38
 8000ce8:	e7f3      	b.n	8000cd2 <_ZN16embassy_executor7_export14Arena$LT$_$GT$5alloc17hd88d02d48ed6e409E+0x42>
 8000cea:	9808      	ldr	r0, [sp, #32]
 8000cec:	9014      	str	r0, [sp, #80]	; 0x50
 8000cee:	980e      	ldr	r0, [sp, #56]	; 0x38
 8000cf0:	9006      	str	r0, [sp, #24]
 8000cf2:	a80c      	add	r0, sp, #48	; 0x30
 8000cf4:	f006 fd20 	bl	8007738 <_ZN4core5alloc6layout6Layout5align17he986c4797dbb3c99E>
 8000cf8:	4601      	mov	r1, r0
 8000cfa:	9806      	ldr	r0, [sp, #24]
 8000cfc:	f00d ff0e 	bl	800eb1c <_ZN4core3num23_$LT$impl$u20$usize$GT$16next_multiple_of17h58b72a3c679b6413E>
 8000d00:	990e      	ldr	r1, [sp, #56]	; 0x38
 8000d02:	1a42      	subs	r2, r0, r1
 8000d04:	9207      	str	r2, [sp, #28]
 8000d06:	4288      	cmp	r0, r1
 8000d08:	d312      	bcc.n	8000d30 <_ZN16embassy_executor7_export14Arena$LT$_$GT$5alloc17hd88d02d48ed6e409E+0xa0>
 8000d0a:	e005      	b.n	8000d18 <_ZN16embassy_executor7_export14Arena$LT$_$GT$5alloc17hd88d02d48ed6e409E+0x88>
 8000d0c:	f645 6038 	movw	r0, #24120	; 0x5e38
 8000d10:	f6c0 0002 	movt	r0, #2050	; 0x802
 8000d14:	f024 faa2 	bl	802525c <_ZN4core9panicking11panic_const24panic_const_sub_overflow17hc85228a8abb82e32E>
 8000d18:	9807      	ldr	r0, [sp, #28]
 8000d1a:	9015      	str	r0, [sp, #84]	; 0x54
 8000d1c:	a80c      	add	r0, sp, #48	; 0x30
 8000d1e:	f006 fd06 	bl	800772e <_ZN4core5alloc6layout6Layout4size17h4c2cf39dac298201E>
 8000d22:	9907      	ldr	r1, [sp, #28]
 8000d24:	4408      	add	r0, r1
 8000d26:	4602      	mov	r2, r0
 8000d28:	9205      	str	r2, [sp, #20]
 8000d2a:	4288      	cmp	r0, r1
 8000d2c:	d30b      	bcc.n	8000d46 <_ZN16embassy_executor7_export14Arena$LT$_$GT$5alloc17hd88d02d48ed6e409E+0xb6>
 8000d2e:	e005      	b.n	8000d3c <_ZN16embassy_executor7_export14Arena$LT$_$GT$5alloc17hd88d02d48ed6e409E+0xac>
 8000d30:	f645 6048 	movw	r0, #24136	; 0x5e48
 8000d34:	f6c0 0002 	movt	r0, #2050	; 0x802
 8000d38:	f024 fa90 	bl	802525c <_ZN4core9panicking11panic_const24panic_const_sub_overflow17hc85228a8abb82e32E>
 8000d3c:	9805      	ldr	r0, [sp, #20]
 8000d3e:	9908      	ldr	r1, [sp, #32]
 8000d40:	4288      	cmp	r0, r1
 8000d42:	d81a      	bhi.n	8000d7a <_ZN16embassy_executor7_export14Arena$LT$_$GT$5alloc17hd88d02d48ed6e409E+0xea>
 8000d44:	e005      	b.n	8000d52 <_ZN16embassy_executor7_export14Arena$LT$_$GT$5alloc17hd88d02d48ed6e409E+0xc2>
 8000d46:	f645 6058 	movw	r0, #24152	; 0x5e58
 8000d4a:	f6c0 0002 	movt	r0, #2050	; 0x802
 8000d4e:	f024 fa72 	bl	8025236 <_ZN4core9panicking11panic_const24panic_const_add_overflow17h48163ce4cb4ad497E>
 8000d52:	9907      	ldr	r1, [sp, #28]
 8000d54:	980e      	ldr	r0, [sp, #56]	; 0x38
 8000d56:	901a      	str	r0, [sp, #104]	; 0x68
 8000d58:	911b      	str	r1, [sp, #108]	; 0x6c
 8000d5a:	4408      	add	r0, r1
 8000d5c:	4601      	mov	r1, r0
 8000d5e:	9102      	str	r1, [sp, #8]
 8000d60:	9016      	str	r0, [sp, #88]	; 0x58
 8000d62:	980e      	ldr	r0, [sp, #56]	; 0x38
 8000d64:	9003      	str	r0, [sp, #12]
 8000d66:	a80c      	add	r0, sp, #48	; 0x30
 8000d68:	f006 fce1 	bl	800772e <_ZN4core5alloc6layout6Layout4size17h4c2cf39dac298201E>
 8000d6c:	9907      	ldr	r1, [sp, #28]
 8000d6e:	4408      	add	r0, r1
 8000d70:	4602      	mov	r2, r0
 8000d72:	9204      	str	r2, [sp, #16]
 8000d74:	4288      	cmp	r0, r1
 8000d76:	d313      	bcc.n	8000da0 <_ZN16embassy_executor7_export14Arena$LT$_$GT$5alloc17hd88d02d48ed6e409E+0x110>
 8000d78:	e000      	b.n	8000d7c <_ZN16embassy_executor7_export14Arena$LT$_$GT$5alloc17hd88d02d48ed6e409E+0xec>
 8000d7a:	e017      	b.n	8000dac <_ZN16embassy_executor7_export14Arena$LT$_$GT$5alloc17hd88d02d48ed6e409E+0x11c>
 8000d7c:	9809      	ldr	r0, [sp, #36]	; 0x24
 8000d7e:	9903      	ldr	r1, [sp, #12]
 8000d80:	9a04      	ldr	r2, [sp, #16]
 8000d82:	9118      	str	r1, [sp, #96]	; 0x60
 8000d84:	9219      	str	r2, [sp, #100]	; 0x64
 8000d86:	4411      	add	r1, r2
 8000d88:	9101      	str	r1, [sp, #4]
 8000d8a:	9117      	str	r1, [sp, #92]	; 0x5c
 8000d8c:	f500 4000 	add.w	r0, r0, #32768	; 0x8000
 8000d90:	f009 fb97 	bl	800a4c2 <_ZN16critical_section5mutex14Mutex$LT$T$GT$6borrow17h51534ec16411e4f0E>
 8000d94:	9901      	ldr	r1, [sp, #4]
 8000d96:	f7ff fd26 	bl	80007e6 <_ZN4core4cell13Cell$LT$T$GT$3set17h72f964b26976b00fE>
 8000d9a:	9802      	ldr	r0, [sp, #8]
 8000d9c:	b022      	add	sp, #136	; 0x88
 8000d9e:	bd80      	pop	{r7, pc}
 8000da0:	f645 6068 	movw	r0, #24168	; 0x5e68
 8000da4:	f6c0 0002 	movt	r0, #2050	; 0x802
 8000da8:	f024 fa45 	bl	8025236 <_ZN4core9panicking11panic_const24panic_const_add_overflow17h48163ce4cb4ad497E>
 8000dac:	f013 f999 	bl	80140e2 <_defmt_acquire>
 8000db0:	f240 0016 	movw	r0, #22
 8000db4:	f2c0 0000 	movt	r0, #0
 8000db8:	f022 fe18 	bl	80239ec <_ZN5defmt6export9make_istr17hc00a4ef463faf312E>
 8000dbc:	f827 0c4a 	strh.w	r0, [r7, #-74]
 8000dc0:	f1a7 004a 	sub.w	r0, r7, #74	; 0x4a
 8000dc4:	f022 fe7e 	bl	8023ac4 <_ZN5defmt6export6header17hc8d48e1d45da2002E>
 8000dc8:	f013 f990 	bl	80140ec <_defmt_release>
 8000dcc:	e7ff      	b.n	8000dce <_ZN16embassy_executor7_export14Arena$LT$_$GT$5alloc17hd88d02d48ed6e409E+0x13e>
 8000dce:	f022 fea3 	bl	8023b18 <__defmt_default_panic>

08000dd2 <_ZN16embassy_executor7_export14Arena$LT$_$GT$5alloc17hdd3b62bb4b1f028dE>:
 8000dd2:	b580      	push	{r7, lr}
 8000dd4:	466f      	mov	r7, sp
 8000dd6:	b0a2      	sub	sp, #136	; 0x88
 8000dd8:	9009      	str	r0, [sp, #36]	; 0x24
 8000dda:	9010      	str	r0, [sp, #64]	; 0x40
 8000ddc:	f00e fc23 	bl	800f626 <_ZN4core5alloc6layout6Layout3new17ha697162c66d5c3d0E>
 8000de0:	4602      	mov	r2, r0
 8000de2:	9809      	ldr	r0, [sp, #36]	; 0x24
 8000de4:	920c      	str	r2, [sp, #48]	; 0x30
 8000de6:	910d      	str	r1, [sp, #52]	; 0x34
 8000de8:	9021      	str	r0, [sp, #132]	; 0x84
 8000dea:	901f      	str	r0, [sp, #124]	; 0x7c
 8000dec:	9012      	str	r0, [sp, #72]	; 0x48
 8000dee:	901c      	str	r0, [sp, #112]	; 0x70
 8000df0:	f44f 4100 	mov.w	r1, #32768	; 0x8000
 8000df4:	911d      	str	r1, [sp, #116]	; 0x74
 8000df6:	f500 4000 	add.w	r0, r0, #32768	; 0x8000
 8000dfa:	4601      	mov	r1, r0
 8000dfc:	910a      	str	r1, [sp, #40]	; 0x28
 8000dfe:	9013      	str	r0, [sp, #76]	; 0x4c
 8000e00:	f009 fb5f 	bl	800a4c2 <_ZN16critical_section5mutex14Mutex$LT$T$GT$6borrow17h51534ec16411e4f0E>
 8000e04:	f7ff fce9 	bl	80007da <_ZN4core4cell13Cell$LT$T$GT$3get17h8bbd0c06fb44e0d2E>
 8000e08:	900e      	str	r0, [sp, #56]	; 0x38
 8000e0a:	980e      	ldr	r0, [sp, #56]	; 0x38
 8000e0c:	f010 f9c7 	bl	801119e <_ZN4core3ptr7mut_ptr31_$LT$impl$u20$$BP$mut$u20$T$GT$7is_null17ha168b150e922b823E>
 8000e10:	b938      	cbnz	r0, 8000e22 <_ZN16embassy_executor7_export14Arena$LT$_$GT$5alloc17hdd3b62bb4b1f028dE+0x50>
 8000e12:	e7ff      	b.n	8000e14 <_ZN16embassy_executor7_export14Arena$LT$_$GT$5alloc17hdd3b62bb4b1f028dE+0x42>
 8000e14:	980a      	ldr	r0, [sp, #40]	; 0x28
 8000e16:	990e      	ldr	r1, [sp, #56]	; 0x38
 8000e18:	1a42      	subs	r2, r0, r1
 8000e1a:	9208      	str	r2, [sp, #32]
 8000e1c:	4288      	cmp	r0, r1
 8000e1e:	d316      	bcc.n	8000e4e <_ZN16embassy_executor7_export14Arena$LT$_$GT$5alloc17hdd3b62bb4b1f028dE+0x7c>
 8000e20:	e004      	b.n	8000e2c <_ZN16embassy_executor7_export14Arena$LT$_$GT$5alloc17hdd3b62bb4b1f028dE+0x5a>
 8000e22:	9809      	ldr	r0, [sp, #36]	; 0x24
 8000e24:	9020      	str	r0, [sp, #128]	; 0x80
 8000e26:	901e      	str	r0, [sp, #120]	; 0x78
 8000e28:	900e      	str	r0, [sp, #56]	; 0x38
 8000e2a:	e7f3      	b.n	8000e14 <_ZN16embassy_executor7_export14Arena$LT$_$GT$5alloc17hdd3b62bb4b1f028dE+0x42>
 8000e2c:	9808      	ldr	r0, [sp, #32]
 8000e2e:	9014      	str	r0, [sp, #80]	; 0x50
 8000e30:	980e      	ldr	r0, [sp, #56]	; 0x38
 8000e32:	9006      	str	r0, [sp, #24]
 8000e34:	a80c      	add	r0, sp, #48	; 0x30
 8000e36:	f006 fc7f 	bl	8007738 <_ZN4core5alloc6layout6Layout5align17he986c4797dbb3c99E>
 8000e3a:	4601      	mov	r1, r0
 8000e3c:	9806      	ldr	r0, [sp, #24]
 8000e3e:	f00d fe6d 	bl	800eb1c <_ZN4core3num23_$LT$impl$u20$usize$GT$16next_multiple_of17h58b72a3c679b6413E>
 8000e42:	990e      	ldr	r1, [sp, #56]	; 0x38
 8000e44:	1a42      	subs	r2, r0, r1
 8000e46:	9207      	str	r2, [sp, #28]
 8000e48:	4288      	cmp	r0, r1
 8000e4a:	d312      	bcc.n	8000e72 <_ZN16embassy_executor7_export14Arena$LT$_$GT$5alloc17hdd3b62bb4b1f028dE+0xa0>
 8000e4c:	e005      	b.n	8000e5a <_ZN16embassy_executor7_export14Arena$LT$_$GT$5alloc17hdd3b62bb4b1f028dE+0x88>
 8000e4e:	f645 6038 	movw	r0, #24120	; 0x5e38
 8000e52:	f6c0 0002 	movt	r0, #2050	; 0x802
 8000e56:	f024 fa01 	bl	802525c <_ZN4core9panicking11panic_const24panic_const_sub_overflow17hc85228a8abb82e32E>
 8000e5a:	9807      	ldr	r0, [sp, #28]
 8000e5c:	9015      	str	r0, [sp, #84]	; 0x54
 8000e5e:	a80c      	add	r0, sp, #48	; 0x30
 8000e60:	f006 fc65 	bl	800772e <_ZN4core5alloc6layout6Layout4size17h4c2cf39dac298201E>
 8000e64:	9907      	ldr	r1, [sp, #28]
 8000e66:	4408      	add	r0, r1
 8000e68:	4602      	mov	r2, r0
 8000e6a:	9205      	str	r2, [sp, #20]
 8000e6c:	4288      	cmp	r0, r1
 8000e6e:	d30b      	bcc.n	8000e88 <_ZN16embassy_executor7_export14Arena$LT$_$GT$5alloc17hdd3b62bb4b1f028dE+0xb6>
 8000e70:	e005      	b.n	8000e7e <_ZN16embassy_executor7_export14Arena$LT$_$GT$5alloc17hdd3b62bb4b1f028dE+0xac>
 8000e72:	f645 6048 	movw	r0, #24136	; 0x5e48
 8000e76:	f6c0 0002 	movt	r0, #2050	; 0x802
 8000e7a:	f024 f9ef 	bl	802525c <_ZN4core9panicking11panic_const24panic_const_sub_overflow17hc85228a8abb82e32E>
 8000e7e:	9805      	ldr	r0, [sp, #20]
 8000e80:	9908      	ldr	r1, [sp, #32]
 8000e82:	4288      	cmp	r0, r1
 8000e84:	d81a      	bhi.n	8000ebc <_ZN16embassy_executor7_export14Arena$LT$_$GT$5alloc17hdd3b62bb4b1f028dE+0xea>
 8000e86:	e005      	b.n	8000e94 <_ZN16embassy_executor7_export14Arena$LT$_$GT$5alloc17hdd3b62bb4b1f028dE+0xc2>
 8000e88:	f645 6058 	movw	r0, #24152	; 0x5e58
 8000e8c:	f6c0 0002 	movt	r0, #2050	; 0x802
 8000e90:	f024 f9d1 	bl	8025236 <_ZN4core9panicking11panic_const24panic_const_add_overflow17h48163ce4cb4ad497E>
 8000e94:	9907      	ldr	r1, [sp, #28]
 8000e96:	980e      	ldr	r0, [sp, #56]	; 0x38
 8000e98:	901a      	str	r0, [sp, #104]	; 0x68
 8000e9a:	911b      	str	r1, [sp, #108]	; 0x6c
 8000e9c:	4408      	add	r0, r1
 8000e9e:	4601      	mov	r1, r0
 8000ea0:	9102      	str	r1, [sp, #8]
 8000ea2:	9016      	str	r0, [sp, #88]	; 0x58
 8000ea4:	980e      	ldr	r0, [sp, #56]	; 0x38
 8000ea6:	9003      	str	r0, [sp, #12]
 8000ea8:	a80c      	add	r0, sp, #48	; 0x30
 8000eaa:	f006 fc40 	bl	800772e <_ZN4core5alloc6layout6Layout4size17h4c2cf39dac298201E>
 8000eae:	9907      	ldr	r1, [sp, #28]
 8000eb0:	4408      	add	r0, r1
 8000eb2:	4602      	mov	r2, r0
 8000eb4:	9204      	str	r2, [sp, #16]
 8000eb6:	4288      	cmp	r0, r1
 8000eb8:	d313      	bcc.n	8000ee2 <_ZN16embassy_executor7_export14Arena$LT$_$GT$5alloc17hdd3b62bb4b1f028dE+0x110>
 8000eba:	e000      	b.n	8000ebe <_ZN16embassy_executor7_export14Arena$LT$_$GT$5alloc17hdd3b62bb4b1f028dE+0xec>
 8000ebc:	e017      	b.n	8000eee <_ZN16embassy_executor7_export14Arena$LT$_$GT$5alloc17hdd3b62bb4b1f028dE+0x11c>
 8000ebe:	9809      	ldr	r0, [sp, #36]	; 0x24
 8000ec0:	9903      	ldr	r1, [sp, #12]
 8000ec2:	9a04      	ldr	r2, [sp, #16]
 8000ec4:	9118      	str	r1, [sp, #96]	; 0x60
 8000ec6:	9219      	str	r2, [sp, #100]	; 0x64
 8000ec8:	4411      	add	r1, r2
 8000eca:	9101      	str	r1, [sp, #4]
 8000ecc:	9117      	str	r1, [sp, #92]	; 0x5c
 8000ece:	f500 4000 	add.w	r0, r0, #32768	; 0x8000
 8000ed2:	f009 faf6 	bl	800a4c2 <_ZN16critical_section5mutex14Mutex$LT$T$GT$6borrow17h51534ec16411e4f0E>
 8000ed6:	9901      	ldr	r1, [sp, #4]
 8000ed8:	f7ff fc85 	bl	80007e6 <_ZN4core4cell13Cell$LT$T$GT$3set17h72f964b26976b00fE>
 8000edc:	9802      	ldr	r0, [sp, #8]
 8000ede:	b022      	add	sp, #136	; 0x88
 8000ee0:	bd80      	pop	{r7, pc}
 8000ee2:	f645 6068 	movw	r0, #24168	; 0x5e68
 8000ee6:	f6c0 0002 	movt	r0, #2050	; 0x802
 8000eea:	f024 f9a4 	bl	8025236 <_ZN4core9panicking11panic_const24panic_const_add_overflow17h48163ce4cb4ad497E>
 8000eee:	f013 f8f8 	bl	80140e2 <_defmt_acquire>
 8000ef2:	f240 0016 	movw	r0, #22
 8000ef6:	f2c0 0000 	movt	r0, #0
 8000efa:	f022 fd77 	bl	80239ec <_ZN5defmt6export9make_istr17hc00a4ef463faf312E>
 8000efe:	f827 0c4a 	strh.w	r0, [r7, #-74]
 8000f02:	f1a7 004a 	sub.w	r0, r7, #74	; 0x4a
 8000f06:	f022 fddd 	bl	8023ac4 <_ZN5defmt6export6header17hc8d48e1d45da2002E>
 8000f0a:	f013 f8ef 	bl	80140ec <_defmt_release>
 8000f0e:	e7ff      	b.n	8000f10 <_ZN16embassy_executor7_export14Arena$LT$_$GT$5alloc17hdd3b62bb4b1f028dE+0x13e>
 8000f10:	f022 fe02 	bl	8023b18 <__defmt_default_panic>

08000f14 <_ZN4core5slice29_$LT$impl$u20$$u5b$T$u5d$$GT$10chunks_mut17hb8048bacd08f0a4cE>:
 8000f14:	b580      	push	{r7, lr}
 8000f16:	466f      	mov	r7, sp
 8000f18:	b090      	sub	sp, #64	; 0x40
 8000f1a:	9301      	str	r3, [sp, #4]
 8000f1c:	9202      	str	r2, [sp, #8]
 8000f1e:	9103      	str	r1, [sp, #12]
 8000f20:	9004      	str	r0, [sp, #16]
 8000f22:	68b8      	ldr	r0, [r7, #8]
 8000f24:	9005      	str	r0, [sp, #20]
 8000f26:	f645 6094 	movw	r0, #24212	; 0x5e94
 8000f2a:	f6c0 0002 	movt	r0, #2050	; 0x802
 8000f2e:	9006      	str	r0, [sp, #24]
 8000f30:	910d      	str	r1, [sp, #52]	; 0x34
 8000f32:	920e      	str	r2, [sp, #56]	; 0x38
 8000f34:	930f      	str	r3, [sp, #60]	; 0x3c
 8000f36:	b9bb      	cbnz	r3, 8000f68 <_ZN4core5slice29_$LT$impl$u20$$u5b$T$u5d$$GT$10chunks_mut17hb8048bacd08f0a4cE+0x54>
 8000f38:	e7ff      	b.n	8000f3a <_ZN4core5slice29_$LT$impl$u20$$u5b$T$u5d$$GT$10chunks_mut17hb8048bacd08f0a4cE+0x26>
 8000f3a:	9905      	ldr	r1, [sp, #20]
 8000f3c:	f645 6094 	movw	r0, #24212	; 0x5e94
 8000f40:	f6c0 0002 	movt	r0, #2050	; 0x802
 8000f44:	9007      	str	r0, [sp, #28]
 8000f46:	2001      	movs	r0, #1
 8000f48:	9008      	str	r0, [sp, #32]
 8000f4a:	f645 5084 	movw	r0, #23940	; 0x5d84
 8000f4e:	f6c0 0002 	movt	r0, #2050	; 0x802
 8000f52:	6802      	ldr	r2, [r0, #0]
 8000f54:	6840      	ldr	r0, [r0, #4]
 8000f56:	920b      	str	r2, [sp, #44]	; 0x2c
 8000f58:	900c      	str	r0, [sp, #48]	; 0x30
 8000f5a:	2004      	movs	r0, #4
 8000f5c:	9009      	str	r0, [sp, #36]	; 0x24
 8000f5e:	2000      	movs	r0, #0
 8000f60:	900a      	str	r0, [sp, #40]	; 0x28
 8000f62:	a807      	add	r0, sp, #28
 8000f64:	f022 ff46 	bl	8023df4 <_ZN4core9panicking9panic_fmt17h023ac6ebb1a1cd95E>
 8000f68:	9801      	ldr	r0, [sp, #4]
 8000f6a:	9904      	ldr	r1, [sp, #16]
 8000f6c:	9a02      	ldr	r2, [sp, #8]
 8000f6e:	9b03      	ldr	r3, [sp, #12]
 8000f70:	600b      	str	r3, [r1, #0]
 8000f72:	604a      	str	r2, [r1, #4]
 8000f74:	6088      	str	r0, [r1, #8]
 8000f76:	b010      	add	sp, #64	; 0x40
 8000f78:	bd80      	pop	{r7, pc}

08000f7a <_ZN20embassy_hal_internal9interrupt12InterruptExt7disable17h63aa58f5ad03c6d6E>:
 8000f7a:	b580      	push	{r7, lr}
 8000f7c:	466f      	mov	r7, sp
 8000f7e:	b082      	sub	sp, #8
 8000f80:	f807 0c01 	strb.w	r0, [r7, #-1]
 8000f84:	f00c fde1 	bl	800db4a <_ZN8cortex_m10peripheral4nvic44_$LT$impl$u20$cortex_m..peripheral..NVIC$GT$4mask17h13150662ae1f76b3E>
 8000f88:	2004      	movs	r0, #4
 8000f8a:	f807 0c02 	strb.w	r0, [r7, #-2]
 8000f8e:	f817 0c02 	ldrb.w	r0, [r7, #-2]
 8000f92:	f00d f919 	bl	800e1c8 <_ZN4core4sync6atomic14compiler_fence17h6f1a7a9e52d35fd7E>
 8000f96:	b002      	add	sp, #8
 8000f98:	bd80      	pop	{r7, pc}

08000f9a <_ZN4core3ops8function5FnMut8call_mut17h0e4fca33488f5f2aE>:
 8000f9a:	b580      	push	{r7, lr}
 8000f9c:	466f      	mov	r7, sp
 8000f9e:	b082      	sub	sp, #8
 8000fa0:	9100      	str	r1, [sp, #0]
 8000fa2:	9001      	str	r0, [sp, #4]
 8000fa4:	9800      	ldr	r0, [sp, #0]
 8000fa6:	f00d f82c 	bl	800e002 <_ZN16embassy_executor3raw22AvailableTask$LT$F$GT$5claim17h120ce83fe352bd59E>
 8000faa:	b002      	add	sp, #8
 8000fac:	bd80      	pop	{r7, pc}

08000fae <_ZN4core3ops8function5FnMut8call_mut17hc007d59363f7c7f4E>:
 8000fae:	b580      	push	{r7, lr}
 8000fb0:	466f      	mov	r7, sp
 8000fb2:	b082      	sub	sp, #8
 8000fb4:	9100      	str	r1, [sp, #0]
 8000fb6:	9001      	str	r0, [sp, #4]
 8000fb8:	9800      	ldr	r0, [sp, #0]
 8000fba:	f00d f859 	bl	800e070 <_ZN16embassy_executor3raw22AvailableTask$LT$F$GT$5claim17hcf1a9b9a460427e5E>
 8000fbe:	b002      	add	sp, #8
 8000fc0:	bd80      	pop	{r7, pc}

08000fc2 <_ZN4core3ops8function6FnOnce9call_once17ha60688ee54abf936E>:
 8000fc2:	b580      	push	{r7, lr}
 8000fc4:	466f      	mov	r7, sp
 8000fc6:	b084      	sub	sp, #16
 8000fc8:	9001      	str	r0, [sp, #4]
 8000fca:	9102      	str	r1, [sp, #8]
 8000fcc:	9801      	ldr	r0, [sp, #4]
 8000fce:	9902      	ldr	r1, [sp, #8]
 8000fd0:	f009 fa52 	bl	800a478 <_ZN4core3cmp5impls48_$LT$impl$u20$core..cmp..Ord$u20$for$u20$u16$GT$3cmp17h255da0c323295e6fE>
 8000fd4:	b004      	add	sp, #16
 8000fd6:	bd80      	pop	{r7, pc}

08000fd8 <_ZN4core3ops8function6FnOnce9call_once17hfb1e20ec21c27c3dE>:
 8000fd8:	b580      	push	{r7, lr}
 8000fda:	466f      	mov	r7, sp
 8000fdc:	b082      	sub	sp, #8
 8000fde:	9000      	str	r0, [sp, #0]
 8000fe0:	9800      	ldr	r0, [sp, #0]
 8000fe2:	f01d fb56 	bl	801e692 <_ZN93_$LT$core..slice..iter..Chunks$LT$T$GT$$u20$as$u20$core..iter..traits..iterator..Iterator$GT$4next17hb8fda36558ce2631E>
 8000fe6:	b002      	add	sp, #8
 8000fe8:	bd80      	pop	{r7, pc}

08000fea <_ZN4core3ptr100drop_in_place$LT$embassy_stm32..gpio..Output$LT$embassy_stm32.._generated..peripherals..PC13$GT$$GT$17h6730189554764f7bE>:
 8000fea:	b580      	push	{r7, lr}
 8000fec:	466f      	mov	r7, sp
 8000fee:	b082      	sub	sp, #8
 8000ff0:	9001      	str	r0, [sp, #4]
 8000ff2:	f000 fb6d 	bl	80016d0 <_ZN4core3ptr98drop_in_place$LT$embassy_stm32..gpio..Flex$LT$embassy_stm32.._generated..peripherals..PC13$GT$$GT$17h939f6fde625c1f18E>
 8000ff6:	b002      	add	sp, #8
 8000ff8:	bd80      	pop	{r7, pc}

08000ffa <_ZN4core3ptr108drop_in_place$LT$client..____embassy_main_task..$u7b$$u7b$closure$u7d$$u7d$..$u7b$$u7b$closure$u7d$$u7d$$GT$17h464400008f8b1d2aE>:
 8000ffa:	b580      	push	{r7, lr}
 8000ffc:	466f      	mov	r7, sp
 8000ffe:	b0de      	sub	sp, #376	; 0x178
 8001000:	9000      	str	r0, [sp, #0]
 8001002:	905c      	str	r0, [sp, #368]	; 0x170
 8001004:	7900      	ldrb	r0, [r0, #4]
 8001006:	4601      	mov	r1, r0
 8001008:	9101      	str	r1, [sp, #4]
 800100a:	b150      	cbz	r0, 8001022 <_ZN4core3ptr108drop_in_place$LT$client..____embassy_main_task..$u7b$$u7b$closure$u7d$$u7d$..$u7b$$u7b$closure$u7d$$u7d$$GT$17h464400008f8b1d2aE+0x28>
 800100c:	e7ff      	b.n	800100e <_ZN4core3ptr108drop_in_place$LT$client..____embassy_main_task..$u7b$$u7b$closure$u7d$$u7d$..$u7b$$u7b$closure$u7d$$u7d$$GT$17h464400008f8b1d2aE+0x14>
 800100e:	9801      	ldr	r0, [sp, #4]
 8001010:	2803      	cmp	r0, #3
 8001012:	d008      	beq.n	8001026 <_ZN4core3ptr108drop_in_place$LT$client..____embassy_main_task..$u7b$$u7b$closure$u7d$$u7d$..$u7b$$u7b$closure$u7d$$u7d$$GT$17h464400008f8b1d2aE+0x2c>
 8001014:	e7ff      	b.n	8001016 <_ZN4core3ptr108drop_in_place$LT$client..____embassy_main_task..$u7b$$u7b$closure$u7d$$u7d$..$u7b$$u7b$closure$u7d$$u7d$$GT$17h464400008f8b1d2aE+0x1c>
 8001016:	9801      	ldr	r0, [sp, #4]
 8001018:	2804      	cmp	r0, #4
 800101a:	d009      	beq.n	8001030 <_ZN4core3ptr108drop_in_place$LT$client..____embassy_main_task..$u7b$$u7b$closure$u7d$$u7d$..$u7b$$u7b$closure$u7d$$u7d$$GT$17h464400008f8b1d2aE+0x36>
 800101c:	e7ff      	b.n	800101e <_ZN4core3ptr108drop_in_place$LT$client..____embassy_main_task..$u7b$$u7b$closure$u7d$$u7d$..$u7b$$u7b$closure$u7d$$u7d$$GT$17h464400008f8b1d2aE+0x24>
 800101e:	b05e      	add	sp, #376	; 0x178
 8001020:	bd80      	pop	{r7, pc}
 8001022:	b05e      	add	sp, #376	; 0x178
 8001024:	bd80      	pop	{r7, pc}
 8001026:	9800      	ldr	r0, [sp, #0]
 8001028:	3008      	adds	r0, #8
 800102a:	f000 fa23 	bl	8001474 <_ZN4core3ptr208drop_in_place$LT$embassy_usb..class..cdc_acm..CdcAcmClass$LT$embassy_stm32..usb_otg..usb..Driver$LT$embassy_stm32.._generated..peripherals..USB_OTG_FS$GT$$GT$..wait_connection..$u7b$$u7b$closure$u7d$$u7d$$GT$17haf9ebd794dc3f2e5E>
 800102e:	e004      	b.n	800103a <_ZN4core3ptr108drop_in_place$LT$client..____embassy_main_task..$u7b$$u7b$closure$u7d$$u7d$..$u7b$$u7b$closure$u7d$$u7d$$GT$17h464400008f8b1d2aE+0x40>
 8001030:	9800      	ldr	r0, [sp, #0]
 8001032:	3008      	adds	r0, #8
 8001034:	f000 f81c 	bl	8001070 <_ZN4core3ptr138drop_in_place$LT$client..message..usb_messaging$LT$embassy_stm32.._generated..peripherals..USB_OTG_FS$GT$..$u7b$$u7b$closure$u7d$$u7d$$GT$17h876f796a417797aaE>
 8001038:	e7ff      	b.n	800103a <_ZN4core3ptr108drop_in_place$LT$client..____embassy_main_task..$u7b$$u7b$closure$u7d$$u7d$..$u7b$$u7b$closure$u7d$$u7d$$GT$17h464400008f8b1d2aE+0x40>
 800103a:	b05e      	add	sp, #376	; 0x178
 800103c:	bd80      	pop	{r7, pc}

0800103e <_ZN4core3ptr110drop_in_place$LT$core..cell..RefCell$LT$embassy_sync..waitqueue..waker_registration..WakerRegistration$GT$$GT$17hc5a366f6aaf723fbE>:
 800103e:	b580      	push	{r7, lr}
 8001040:	466f      	mov	r7, sp
 8001042:	b082      	sub	sp, #8
 8001044:	9001      	str	r0, [sp, #4]
 8001046:	3004      	adds	r0, #4
 8001048:	f000 f80a 	bl	8001060 <_ZN4core3ptr113drop_in_place$LT$core..cell..UnsafeCell$LT$embassy_sync..waitqueue..waker_registration..WakerRegistration$GT$$GT$17hb9a655cbddfac287E>
 800104c:	b002      	add	sp, #8
 800104e:	bd80      	pop	{r7, pc}

08001050 <_ZN4core3ptr111drop_in_place$LT$embassy_stm32..usb_otg..usb..Bus$LT$embassy_stm32.._generated..peripherals..USB_OTG_FS$GT$$GT$17h796018c18d4af8faE>:
 8001050:	b580      	push	{r7, lr}
 8001052:	466f      	mov	r7, sp
 8001054:	b082      	sub	sp, #8
 8001056:	9001      	str	r0, [sp, #4]
 8001058:	f000 fb5a 	bl	8001710 <_ZN83_$LT$embassy_stm32..usb_otg..usb..Bus$LT$T$GT$$u20$as$u20$core..ops..drop..Drop$GT$4drop17h0ffb45c03fa156afE>
 800105c:	b002      	add	sp, #8
 800105e:	bd80      	pop	{r7, pc}

08001060 <_ZN4core3ptr113drop_in_place$LT$core..cell..UnsafeCell$LT$embassy_sync..waitqueue..waker_registration..WakerRegistration$GT$$GT$17hb9a655cbddfac287E>:
 8001060:	b580      	push	{r7, lr}
 8001062:	466f      	mov	r7, sp
 8001064:	b082      	sub	sp, #8
 8001066:	9001      	str	r0, [sp, #4]
 8001068:	f01d f819 	bl	801e09e <_ZN4core3ptr83drop_in_place$LT$embassy_sync..waitqueue..waker_registration..WakerRegistration$GT$17he9215293a06b9cb5E>
 800106c:	b002      	add	sp, #8
 800106e:	bd80      	pop	{r7, pc}

08001070 <_ZN4core3ptr138drop_in_place$LT$client..message..usb_messaging$LT$embassy_stm32.._generated..peripherals..USB_OTG_FS$GT$..$u7b$$u7b$closure$u7d$$u7d$$GT$17h876f796a417797aaE>:
 8001070:	b580      	push	{r7, lr}
 8001072:	466f      	mov	r7, sp
 8001074:	b0c0      	sub	sp, #256	; 0x100
 8001076:	9001      	str	r0, [sp, #4]
 8001078:	903f      	str	r0, [sp, #252]	; 0xfc
 800107a:	f890 0060 	ldrb.w	r0, [r0, #96]	; 0x60
 800107e:	4601      	mov	r1, r0
 8001080:	9102      	str	r1, [sp, #8]
 8001082:	b130      	cbz	r0, 8001092 <_ZN4core3ptr138drop_in_place$LT$client..message..usb_messaging$LT$embassy_stm32.._generated..peripherals..USB_OTG_FS$GT$..$u7b$$u7b$closure$u7d$$u7d$$GT$17h876f796a417797aaE+0x22>
 8001084:	e7ff      	b.n	8001086 <_ZN4core3ptr138drop_in_place$LT$client..message..usb_messaging$LT$embassy_stm32.._generated..peripherals..USB_OTG_FS$GT$..$u7b$$u7b$closure$u7d$$u7d$$GT$17h876f796a417797aaE+0x16>
 8001086:	9802      	ldr	r0, [sp, #8]
 8001088:	2803      	cmp	r0, #3
 800108a:	d004      	beq.n	8001096 <_ZN4core3ptr138drop_in_place$LT$client..message..usb_messaging$LT$embassy_stm32.._generated..peripherals..USB_OTG_FS$GT$..$u7b$$u7b$closure$u7d$$u7d$$GT$17h876f796a417797aaE+0x26>
 800108c:	e7ff      	b.n	800108e <_ZN4core3ptr138drop_in_place$LT$client..message..usb_messaging$LT$embassy_stm32.._generated..peripherals..USB_OTG_FS$GT$..$u7b$$u7b$closure$u7d$$u7d$$GT$17h876f796a417797aaE+0x1e>
 800108e:	b040      	add	sp, #256	; 0x100
 8001090:	bd80      	pop	{r7, pc}
 8001092:	b040      	add	sp, #256	; 0x100
 8001094:	bd80      	pop	{r7, pc}
 8001096:	9801      	ldr	r0, [sp, #4]
 8001098:	3010      	adds	r0, #16
 800109a:	f000 f97d 	bl	8001398 <_ZN4core3ptr205drop_in_place$LT$embassy_usb..class..cdc_acm..CdcAcmClass$LT$embassy_stm32..usb_otg..usb..Driver$LT$embassy_stm32.._generated..peripherals..USB_OTG_FS$GT$$GT$..write_packet..$u7b$$u7b$closure$u7d$$u7d$$GT$17h0ff52076a054aae0E>
 800109e:	b040      	add	sp, #256	; 0x100
 80010a0:	bd80      	pop	{r7, pc}

080010a2 <_ZN4core3ptr140drop_in_place$LT$embassy_usb..Inner$LT$embassy_stm32..usb_otg..usb..Driver$LT$embassy_stm32.._generated..peripherals..USB_OTG_FS$GT$$GT$$GT$17ha65c8b1bda18c179E>:
 80010a2:	b580      	push	{r7, lr}
 80010a4:	466f      	mov	r7, sp
 80010a6:	b082      	sub	sp, #8
 80010a8:	9000      	str	r0, [sp, #0]
 80010aa:	9001      	str	r0, [sp, #4]
 80010ac:	3086      	adds	r0, #134	; 0x86
 80010ae:	f7ff ffcf 	bl	8001050 <_ZN4core3ptr111drop_in_place$LT$embassy_stm32..usb_otg..usb..Bus$LT$embassy_stm32.._generated..peripherals..USB_OTG_FS$GT$$GT$17h796018c18d4af8faE>
 80010b2:	9800      	ldr	r0, [sp, #0]
 80010b4:	3010      	adds	r0, #16
 80010b6:	f000 fafb 	bl	80016b0 <_ZN4core3ptr79drop_in_place$LT$heapless..vec..Vec$LT$embassy_usb..Interface$C$4_usize$GT$$GT$17h04a43753480b8085E>
 80010ba:	9800      	ldr	r0, [sp, #0]
 80010bc:	301c      	adds	r0, #28
 80010be:	f000 faff 	bl	80016c0 <_ZN4core3ptr97drop_in_place$LT$heapless..vec..Vec$LT$$RF$mut$u20$dyn$u20$embassy_usb..Handler$C$4_usize$GT$$GT$17ha3002a89769fee5dE>
 80010c2:	b002      	add	sp, #8
 80010c4:	bd80      	pop	{r7, pc}

080010c6 <_ZN4core3ptr144drop_in_place$LT$embassy_usb..UsbDevice$LT$embassy_stm32..usb_otg..usb..Driver$LT$embassy_stm32.._generated..peripherals..USB_OTG_FS$GT$$GT$$GT$17h09565fe08511bc62E>:
 80010c6:	b580      	push	{r7, lr}
 80010c8:	466f      	mov	r7, sp
 80010ca:	b082      	sub	sp, #8
 80010cc:	9001      	str	r0, [sp, #4]
 80010ce:	3008      	adds	r0, #8
 80010d0:	f7ff ffe7 	bl	80010a2 <_ZN4core3ptr140drop_in_place$LT$embassy_usb..Inner$LT$embassy_stm32..usb_otg..usb..Driver$LT$embassy_stm32.._generated..peripherals..USB_OTG_FS$GT$$GT$$GT$17ha65c8b1bda18c179E>
 80010d4:	b002      	add	sp, #8
 80010d6:	bd80      	pop	{r7, pc}

080010d8 <_ZN4core3ptr148drop_in_place$LT$embassy_futures..join..MaybeDone$LT$client..____embassy_main_task..$u7b$$u7b$closure$u7d$$u7d$..$u7b$$u7b$closure$u7d$$u7d$$GT$$GT$17h2c941d84f2fcae7aE>:
 80010d8:	b580      	push	{r7, lr}
 80010da:	466f      	mov	r7, sp
 80010dc:	b084      	sub	sp, #16
 80010de:	9001      	str	r0, [sp, #4]
 80010e0:	9003      	str	r0, [sp, #12]
 80010e2:	7900      	ldrb	r0, [r0, #4]
 80010e4:	1f41      	subs	r1, r0, #5
 80010e6:	b2ca      	uxtb	r2, r1
 80010e8:	2001      	movs	r0, #1
 80010ea:	fa50 f181 	uxtab	r1, r0, r1
 80010ee:	2000      	movs	r0, #0
 80010f0:	2a02      	cmp	r2, #2
 80010f2:	bf38      	it	cc
 80010f4:	4608      	movcc	r0, r1
 80010f6:	4601      	mov	r1, r0
 80010f8:	9102      	str	r1, [sp, #8]
 80010fa:	b130      	cbz	r0, 800110a <_ZN4core3ptr148drop_in_place$LT$embassy_futures..join..MaybeDone$LT$client..____embassy_main_task..$u7b$$u7b$closure$u7d$$u7d$..$u7b$$u7b$closure$u7d$$u7d$$GT$$GT$17h2c941d84f2fcae7aE+0x32>
 80010fc:	e7ff      	b.n	80010fe <_ZN4core3ptr148drop_in_place$LT$embassy_futures..join..MaybeDone$LT$client..____embassy_main_task..$u7b$$u7b$closure$u7d$$u7d$..$u7b$$u7b$closure$u7d$$u7d$$GT$$GT$17h2c941d84f2fcae7aE+0x26>
 80010fe:	9802      	ldr	r0, [sp, #8]
 8001100:	2801      	cmp	r0, #1
 8001102:	d100      	bne.n	8001106 <_ZN4core3ptr148drop_in_place$LT$embassy_futures..join..MaybeDone$LT$client..____embassy_main_task..$u7b$$u7b$closure$u7d$$u7d$..$u7b$$u7b$closure$u7d$$u7d$$GT$$GT$17h2c941d84f2fcae7aE+0x2e>
 8001104:	e7ff      	b.n	8001106 <_ZN4core3ptr148drop_in_place$LT$embassy_futures..join..MaybeDone$LT$client..____embassy_main_task..$u7b$$u7b$closure$u7d$$u7d$..$u7b$$u7b$closure$u7d$$u7d$$GT$$GT$17h2c941d84f2fcae7aE+0x2e>
 8001106:	b004      	add	sp, #16
 8001108:	bd80      	pop	{r7, pc}
 800110a:	9801      	ldr	r0, [sp, #4]
 800110c:	f7ff ff75 	bl	8000ffa <_ZN4core3ptr108drop_in_place$LT$client..____embassy_main_task..$u7b$$u7b$closure$u7d$$u7d$..$u7b$$u7b$closure$u7d$$u7d$$GT$17h464400008f8b1d2aE>
 8001110:	e7f9      	b.n	8001106 <_ZN4core3ptr148drop_in_place$LT$embassy_futures..join..MaybeDone$LT$client..____embassy_main_task..$u7b$$u7b$closure$u7d$$u7d$..$u7b$$u7b$closure$u7d$$u7d$$GT$$GT$17h2c941d84f2fcae7aE+0x2e>

08001112 <_ZN4core3ptr159drop_in_place$LT$embassy_usb..builder..FunctionBuilder$LT$embassy_stm32..usb_otg..usb..Driver$LT$embassy_stm32.._generated..peripherals..USB_OTG_FS$GT$$GT$$GT$17hc5b1c806059f5bd2E>:
 8001112:	b580      	push	{r7, lr}
 8001114:	466f      	mov	r7, sp
 8001116:	b082      	sub	sp, #8
 8001118:	9001      	str	r0, [sp, #4]
 800111a:	f000 fb01 	bl	8001720 <_ZN88_$LT$embassy_usb..builder..FunctionBuilder$LT$D$GT$$u20$as$u20$core..ops..drop..Drop$GT$4drop17hfa6f877ac1bf2832E>
 800111e:	b002      	add	sp, #8
 8001120:	bd80      	pop	{r7, pc}

08001122 <_ZN4core3ptr178drop_in_place$LT$embassy_usb..UsbDevice$LT$embassy_stm32..usb_otg..usb..Driver$LT$embassy_stm32.._generated..peripherals..USB_OTG_FS$GT$$GT$..run..$u7b$$u7b$closure$u7d$$u7d$$GT$17heacf9c537457cefaE>:
 8001122:	b580      	push	{r7, lr}
 8001124:	466f      	mov	r7, sp
 8001126:	f5ad 7d30 	sub.w	sp, sp, #704	; 0x2c0
 800112a:	9001      	str	r0, [sp, #4]
 800112c:	90ae      	str	r0, [sp, #696]	; 0x2b8
 800112e:	7a00      	ldrb	r0, [r0, #8]
 8001130:	4601      	mov	r1, r0
 8001132:	9102      	str	r1, [sp, #8]
 8001134:	b158      	cbz	r0, 800114e <_ZN4core3ptr178drop_in_place$LT$embassy_usb..UsbDevice$LT$embassy_stm32..usb_otg..usb..Driver$LT$embassy_stm32.._generated..peripherals..USB_OTG_FS$GT$$GT$..run..$u7b$$u7b$closure$u7d$$u7d$$GT$17heacf9c537457cefaE+0x2c>
 8001136:	e7ff      	b.n	8001138 <_ZN4core3ptr178drop_in_place$LT$embassy_usb..UsbDevice$LT$embassy_stm32..usb_otg..usb..Driver$LT$embassy_stm32.._generated..peripherals..USB_OTG_FS$GT$$GT$..run..$u7b$$u7b$closure$u7d$$u7d$$GT$17heacf9c537457cefaE+0x16>
 8001138:	9802      	ldr	r0, [sp, #8]
 800113a:	2803      	cmp	r0, #3
 800113c:	d00a      	beq.n	8001154 <_ZN4core3ptr178drop_in_place$LT$embassy_usb..UsbDevice$LT$embassy_stm32..usb_otg..usb..Driver$LT$embassy_stm32.._generated..peripherals..USB_OTG_FS$GT$$GT$..run..$u7b$$u7b$closure$u7d$$u7d$$GT$17heacf9c537457cefaE+0x32>
 800113e:	e7ff      	b.n	8001140 <_ZN4core3ptr178drop_in_place$LT$embassy_usb..UsbDevice$LT$embassy_stm32..usb_otg..usb..Driver$LT$embassy_stm32.._generated..peripherals..USB_OTG_FS$GT$$GT$..run..$u7b$$u7b$closure$u7d$$u7d$$GT$17heacf9c537457cefaE+0x1e>
 8001140:	9802      	ldr	r0, [sp, #8]
 8001142:	2804      	cmp	r0, #4
 8001144:	d00b      	beq.n	800115e <_ZN4core3ptr178drop_in_place$LT$embassy_usb..UsbDevice$LT$embassy_stm32..usb_otg..usb..Driver$LT$embassy_stm32.._generated..peripherals..USB_OTG_FS$GT$$GT$..run..$u7b$$u7b$closure$u7d$$u7d$$GT$17heacf9c537457cefaE+0x3c>
 8001146:	e7ff      	b.n	8001148 <_ZN4core3ptr178drop_in_place$LT$embassy_usb..UsbDevice$LT$embassy_stm32..usb_otg..usb..Driver$LT$embassy_stm32.._generated..peripherals..USB_OTG_FS$GT$$GT$..run..$u7b$$u7b$closure$u7d$$u7d$$GT$17heacf9c537457cefaE+0x26>
 8001148:	f50d 7d30 	add.w	sp, sp, #704	; 0x2c0
 800114c:	bd80      	pop	{r7, pc}
 800114e:	f50d 7d30 	add.w	sp, sp, #704	; 0x2c0
 8001152:	bd80      	pop	{r7, pc}
 8001154:	9801      	ldr	r0, [sp, #4]
 8001156:	300c      	adds	r0, #12
 8001158:	f000 f8bc 	bl	80012d4 <_ZN4core3ptr192drop_in_place$LT$embassy_usb..UsbDevice$LT$embassy_stm32..usb_otg..usb..Driver$LT$embassy_stm32.._generated..peripherals..USB_OTG_FS$GT$$GT$..run_until_suspend..$u7b$$u7b$closure$u7d$$u7d$$GT$17h19d8e3c29d54c43eE>
 800115c:	e004      	b.n	8001168 <_ZN4core3ptr178drop_in_place$LT$embassy_usb..UsbDevice$LT$embassy_stm32..usb_otg..usb..Driver$LT$embassy_stm32.._generated..peripherals..USB_OTG_FS$GT$$GT$..run..$u7b$$u7b$closure$u7d$$u7d$$GT$17heacf9c537457cefaE+0x46>
 800115e:	9801      	ldr	r0, [sp, #4]
 8001160:	300c      	adds	r0, #12
 8001162:	f000 f804 	bl	800116e <_ZN4core3ptr186drop_in_place$LT$embassy_usb..UsbDevice$LT$embassy_stm32..usb_otg..usb..Driver$LT$embassy_stm32.._generated..peripherals..USB_OTG_FS$GT$$GT$..wait_resume..$u7b$$u7b$closure$u7d$$u7d$$GT$17h5d9bc30f82c64efeE>
 8001166:	e7ff      	b.n	8001168 <_ZN4core3ptr178drop_in_place$LT$embassy_usb..UsbDevice$LT$embassy_stm32..usb_otg..usb..Driver$LT$embassy_stm32.._generated..peripherals..USB_OTG_FS$GT$$GT$..run..$u7b$$u7b$closure$u7d$$u7d$$GT$17heacf9c537457cefaE+0x46>
 8001168:	f50d 7d30 	add.w	sp, sp, #704	; 0x2c0
 800116c:	bd80      	pop	{r7, pc}

0800116e <_ZN4core3ptr186drop_in_place$LT$embassy_usb..UsbDevice$LT$embassy_stm32..usb_otg..usb..Driver$LT$embassy_stm32.._generated..peripherals..USB_OTG_FS$GT$$GT$..wait_resume..$u7b$$u7b$closure$u7d$$u7d$$GT$17h5d9bc30f82c64efeE>:
 800116e:	b580      	push	{r7, lr}
 8001170:	466f      	mov	r7, sp
 8001172:	b09c      	sub	sp, #112	; 0x70
 8001174:	9000      	str	r0, [sp, #0]
 8001176:	901a      	str	r0, [sp, #104]	; 0x68
 8001178:	7a00      	ldrb	r0, [r0, #8]
 800117a:	4601      	mov	r1, r0
 800117c:	9101      	str	r1, [sp, #4]
 800117e:	b150      	cbz	r0, 8001196 <_ZN4core3ptr186drop_in_place$LT$embassy_usb..UsbDevice$LT$embassy_stm32..usb_otg..usb..Driver$LT$embassy_stm32.._generated..peripherals..USB_OTG_FS$GT$$GT$..wait_resume..$u7b$$u7b$closure$u7d$$u7d$$GT$17h5d9bc30f82c64efeE+0x28>
 8001180:	e7ff      	b.n	8001182 <_ZN4core3ptr186drop_in_place$LT$embassy_usb..UsbDevice$LT$embassy_stm32..usb_otg..usb..Driver$LT$embassy_stm32.._generated..peripherals..USB_OTG_FS$GT$$GT$..wait_resume..$u7b$$u7b$closure$u7d$$u7d$$GT$17h5d9bc30f82c64efeE+0x14>
 8001182:	9801      	ldr	r0, [sp, #4]
 8001184:	2803      	cmp	r0, #3
 8001186:	d008      	beq.n	800119a <_ZN4core3ptr186drop_in_place$LT$embassy_usb..UsbDevice$LT$embassy_stm32..usb_otg..usb..Driver$LT$embassy_stm32.._generated..peripherals..USB_OTG_FS$GT$$GT$..wait_resume..$u7b$$u7b$closure$u7d$$u7d$$GT$17h5d9bc30f82c64efeE+0x2c>
 8001188:	e7ff      	b.n	800118a <_ZN4core3ptr186drop_in_place$LT$embassy_usb..UsbDevice$LT$embassy_stm32..usb_otg..usb..Driver$LT$embassy_stm32.._generated..peripherals..USB_OTG_FS$GT$$GT$..wait_resume..$u7b$$u7b$closure$u7d$$u7d$$GT$17h5d9bc30f82c64efeE+0x1c>
 800118a:	9801      	ldr	r0, [sp, #4]
 800118c:	2804      	cmp	r0, #4
 800118e:	d009      	beq.n	80011a4 <_ZN4core3ptr186drop_in_place$LT$embassy_usb..UsbDevice$LT$embassy_stm32..usb_otg..usb..Driver$LT$embassy_stm32.._generated..peripherals..USB_OTG_FS$GT$$GT$..wait_resume..$u7b$$u7b$closure$u7d$$u7d$$GT$17h5d9bc30f82c64efeE+0x36>
 8001190:	e7ff      	b.n	8001192 <_ZN4core3ptr186drop_in_place$LT$embassy_usb..UsbDevice$LT$embassy_stm32..usb_otg..usb..Driver$LT$embassy_stm32.._generated..peripherals..USB_OTG_FS$GT$$GT$..wait_resume..$u7b$$u7b$closure$u7d$$u7d$$GT$17h5d9bc30f82c64efeE+0x24>
 8001192:	b01c      	add	sp, #112	; 0x70
 8001194:	bd80      	pop	{r7, pc}
 8001196:	b01c      	add	sp, #112	; 0x70
 8001198:	bd80      	pop	{r7, pc}
 800119a:	9800      	ldr	r0, [sp, #0]
 800119c:	300c      	adds	r0, #12
 800119e:	f000 f82a 	bl	80011f6 <_ZN4core3ptr189drop_in_place$LT$$LT$embassy_stm32..usb_otg..usb..Bus$LT$embassy_stm32.._generated..peripherals..USB_OTG_FS$GT$$u20$as$u20$embassy_usb_driver..Bus$GT$..poll..$u7b$$u7b$closure$u7d$$u7d$$GT$17hd622701e6f37faf6E>
 80011a2:	e004      	b.n	80011ae <_ZN4core3ptr186drop_in_place$LT$embassy_usb..UsbDevice$LT$embassy_stm32..usb_otg..usb..Driver$LT$embassy_stm32.._generated..peripherals..USB_OTG_FS$GT$$GT$..wait_resume..$u7b$$u7b$closure$u7d$$u7d$$GT$17h5d9bc30f82c64efeE+0x40>
 80011a4:	9800      	ldr	r0, [sp, #0]
 80011a6:	300c      	adds	r0, #12
 80011a8:	f000 f803 	bl	80011b2 <_ZN4core3ptr187drop_in_place$LT$embassy_usb..Inner$LT$embassy_stm32..usb_otg..usb..Driver$LT$embassy_stm32.._generated..peripherals..USB_OTG_FS$GT$$GT$..handle_bus_event..$u7b$$u7b$closure$u7d$$u7d$$GT$17hc5daa725cea264dfE>
 80011ac:	e7ff      	b.n	80011ae <_ZN4core3ptr186drop_in_place$LT$embassy_usb..UsbDevice$LT$embassy_stm32..usb_otg..usb..Driver$LT$embassy_stm32.._generated..peripherals..USB_OTG_FS$GT$$GT$..wait_resume..$u7b$$u7b$closure$u7d$$u7d$$GT$17h5d9bc30f82c64efeE+0x40>
 80011ae:	b01c      	add	sp, #112	; 0x70
 80011b0:	bd80      	pop	{r7, pc}

080011b2 <_ZN4core3ptr187drop_in_place$LT$embassy_usb..Inner$LT$embassy_stm32..usb_otg..usb..Driver$LT$embassy_stm32.._generated..peripherals..USB_OTG_FS$GT$$GT$..handle_bus_event..$u7b$$u7b$closure$u7d$$u7d$$GT$17hc5daa725cea264dfE>:
 80011b2:	b580      	push	{r7, lr}
 80011b4:	466f      	mov	r7, sp
 80011b6:	b09a      	sub	sp, #104	; 0x68
 80011b8:	9001      	str	r0, [sp, #4]
 80011ba:	9018      	str	r0, [sp, #96]	; 0x60
 80011bc:	7a40      	ldrb	r0, [r0, #9]
 80011be:	4601      	mov	r1, r0
 80011c0:	9102      	str	r1, [sp, #8]
 80011c2:	b150      	cbz	r0, 80011da <_ZN4core3ptr187drop_in_place$LT$embassy_usb..Inner$LT$embassy_stm32..usb_otg..usb..Driver$LT$embassy_stm32.._generated..peripherals..USB_OTG_FS$GT$$GT$..handle_bus_event..$u7b$$u7b$closure$u7d$$u7d$$GT$17hc5daa725cea264dfE+0x28>
 80011c4:	e7ff      	b.n	80011c6 <_ZN4core3ptr187drop_in_place$LT$embassy_usb..Inner$LT$embassy_stm32..usb_otg..usb..Driver$LT$embassy_stm32.._generated..peripherals..USB_OTG_FS$GT$$GT$..handle_bus_event..$u7b$$u7b$closure$u7d$$u7d$$GT$17hc5daa725cea264dfE+0x14>
 80011c6:	9802      	ldr	r0, [sp, #8]
 80011c8:	2803      	cmp	r0, #3
 80011ca:	d008      	beq.n	80011de <_ZN4core3ptr187drop_in_place$LT$embassy_usb..Inner$LT$embassy_stm32..usb_otg..usb..Driver$LT$embassy_stm32.._generated..peripherals..USB_OTG_FS$GT$$GT$..handle_bus_event..$u7b$$u7b$closure$u7d$$u7d$$GT$17hc5daa725cea264dfE+0x2c>
 80011cc:	e7ff      	b.n	80011ce <_ZN4core3ptr187drop_in_place$LT$embassy_usb..Inner$LT$embassy_stm32..usb_otg..usb..Driver$LT$embassy_stm32.._generated..peripherals..USB_OTG_FS$GT$$GT$..handle_bus_event..$u7b$$u7b$closure$u7d$$u7d$$GT$17hc5daa725cea264dfE+0x1c>
 80011ce:	9802      	ldr	r0, [sp, #8]
 80011d0:	2804      	cmp	r0, #4
 80011d2:	d009      	beq.n	80011e8 <_ZN4core3ptr187drop_in_place$LT$embassy_usb..Inner$LT$embassy_stm32..usb_otg..usb..Driver$LT$embassy_stm32.._generated..peripherals..USB_OTG_FS$GT$$GT$..handle_bus_event..$u7b$$u7b$closure$u7d$$u7d$$GT$17hc5daa725cea264dfE+0x36>
 80011d4:	e7ff      	b.n	80011d6 <_ZN4core3ptr187drop_in_place$LT$embassy_usb..Inner$LT$embassy_stm32..usb_otg..usb..Driver$LT$embassy_stm32.._generated..peripherals..USB_OTG_FS$GT$$GT$..handle_bus_event..$u7b$$u7b$closure$u7d$$u7d$$GT$17hc5daa725cea264dfE+0x24>
 80011d6:	b01a      	add	sp, #104	; 0x68
 80011d8:	bd80      	pop	{r7, pc}
 80011da:	b01a      	add	sp, #104	; 0x68
 80011dc:	bd80      	pop	{r7, pc}
 80011de:	9801      	ldr	r0, [sp, #4]
 80011e0:	300c      	adds	r0, #12
 80011e2:	f000 f83f 	bl	8001264 <_ZN4core3ptr191drop_in_place$LT$$LT$embassy_stm32..usb_otg..usb..Bus$LT$embassy_stm32.._generated..peripherals..USB_OTG_FS$GT$$u20$as$u20$embassy_usb_driver..Bus$GT$..enable..$u7b$$u7b$closure$u7d$$u7d$$GT$17h599526db9bde2fbaE>
 80011e6:	e004      	b.n	80011f2 <_ZN4core3ptr187drop_in_place$LT$embassy_usb..Inner$LT$embassy_stm32..usb_otg..usb..Driver$LT$embassy_stm32.._generated..peripherals..USB_OTG_FS$GT$$GT$..handle_bus_event..$u7b$$u7b$closure$u7d$$u7d$$GT$17hc5daa725cea264dfE+0x40>
 80011e8:	9801      	ldr	r0, [sp, #4]
 80011ea:	300c      	adds	r0, #12
 80011ec:	f000 f843 	bl	8001276 <_ZN4core3ptr192drop_in_place$LT$$LT$embassy_stm32..usb_otg..usb..Bus$LT$embassy_stm32.._generated..peripherals..USB_OTG_FS$GT$$u20$as$u20$embassy_usb_driver..Bus$GT$..disable..$u7b$$u7b$closure$u7d$$u7d$$GT$17h2410495e76b96ba5E>
 80011f0:	e7ff      	b.n	80011f2 <_ZN4core3ptr187drop_in_place$LT$embassy_usb..Inner$LT$embassy_stm32..usb_otg..usb..Driver$LT$embassy_stm32.._generated..peripherals..USB_OTG_FS$GT$$GT$..handle_bus_event..$u7b$$u7b$closure$u7d$$u7d$$GT$17hc5daa725cea264dfE+0x40>
 80011f2:	b01a      	add	sp, #104	; 0x68
 80011f4:	bd80      	pop	{r7, pc}

080011f6 <_ZN4core3ptr189drop_in_place$LT$$LT$embassy_stm32..usb_otg..usb..Bus$LT$embassy_stm32.._generated..peripherals..USB_OTG_FS$GT$$u20$as$u20$embassy_usb_driver..Bus$GT$..poll..$u7b$$u7b$closure$u7d$$u7d$$GT$17hd622701e6f37faf6E>:
 80011f6:	b082      	sub	sp, #8
 80011f8:	9001      	str	r0, [sp, #4]
 80011fa:	7a00      	ldrb	r0, [r0, #8]
 80011fc:	4601      	mov	r1, r0
 80011fe:	9100      	str	r1, [sp, #0]
 8001200:	b130      	cbz	r0, 8001210 <_ZN4core3ptr189drop_in_place$LT$$LT$embassy_stm32..usb_otg..usb..Bus$LT$embassy_stm32.._generated..peripherals..USB_OTG_FS$GT$$u20$as$u20$embassy_usb_driver..Bus$GT$..poll..$u7b$$u7b$closure$u7d$$u7d$$GT$17hd622701e6f37faf6E+0x1a>
 8001202:	e7ff      	b.n	8001204 <_ZN4core3ptr189drop_in_place$LT$$LT$embassy_stm32..usb_otg..usb..Bus$LT$embassy_stm32.._generated..peripherals..USB_OTG_FS$GT$$u20$as$u20$embassy_usb_driver..Bus$GT$..poll..$u7b$$u7b$closure$u7d$$u7d$$GT$17hd622701e6f37faf6E+0xe>
 8001204:	9800      	ldr	r0, [sp, #0]
 8001206:	2803      	cmp	r0, #3
 8001208:	d004      	beq.n	8001214 <_ZN4core3ptr189drop_in_place$LT$$LT$embassy_stm32..usb_otg..usb..Bus$LT$embassy_stm32.._generated..peripherals..USB_OTG_FS$GT$$u20$as$u20$embassy_usb_driver..Bus$GT$..poll..$u7b$$u7b$closure$u7d$$u7d$$GT$17hd622701e6f37faf6E+0x1e>
 800120a:	e7ff      	b.n	800120c <_ZN4core3ptr189drop_in_place$LT$$LT$embassy_stm32..usb_otg..usb..Bus$LT$embassy_stm32.._generated..peripherals..USB_OTG_FS$GT$$u20$as$u20$embassy_usb_driver..Bus$GT$..poll..$u7b$$u7b$closure$u7d$$u7d$$GT$17hd622701e6f37faf6E+0x16>
 800120c:	b002      	add	sp, #8
 800120e:	4770      	bx	lr
 8001210:	b002      	add	sp, #8
 8001212:	4770      	bx	lr
 8001214:	b002      	add	sp, #8
 8001216:	4770      	bx	lr

08001218 <_ZN4core3ptr189drop_in_place$LT$embassy_usb..UsbDevice$LT$embassy_stm32..usb_otg..usb..Driver$LT$embassy_stm32.._generated..peripherals..USB_OTG_FS$GT$$GT$..handle_control..$u7b$$u7b$closure$u7d$$u7d$$GT$17hecb7ff6c377d2913E>:
 8001218:	b580      	push	{r7, lr}
 800121a:	466f      	mov	r7, sp
 800121c:	f5ad 7d68 	sub.w	sp, sp, #928	; 0x3a0
 8001220:	9001      	str	r0, [sp, #4]
 8001222:	90e6      	str	r0, [sp, #920]	; 0x398
 8001224:	7f80      	ldrb	r0, [r0, #30]
 8001226:	4601      	mov	r1, r0
 8001228:	9102      	str	r1, [sp, #8]
 800122a:	b158      	cbz	r0, 8001244 <_ZN4core3ptr189drop_in_place$LT$embassy_usb..UsbDevice$LT$embassy_stm32..usb_otg..usb..Driver$LT$embassy_stm32.._generated..peripherals..USB_OTG_FS$GT$$GT$..handle_control..$u7b$$u7b$closure$u7d$$u7d$$GT$17hecb7ff6c377d2913E+0x2c>
 800122c:	e7ff      	b.n	800122e <_ZN4core3ptr189drop_in_place$LT$embassy_usb..UsbDevice$LT$embassy_stm32..usb_otg..usb..Driver$LT$embassy_stm32.._generated..peripherals..USB_OTG_FS$GT$$GT$..handle_control..$u7b$$u7b$closure$u7d$$u7d$$GT$17hecb7ff6c377d2913E+0x16>
 800122e:	9802      	ldr	r0, [sp, #8]
 8001230:	2803      	cmp	r0, #3
 8001232:	d00a      	beq.n	800124a <_ZN4core3ptr189drop_in_place$LT$embassy_usb..UsbDevice$LT$embassy_stm32..usb_otg..usb..Driver$LT$embassy_stm32.._generated..peripherals..USB_OTG_FS$GT$$GT$..handle_control..$u7b$$u7b$closure$u7d$$u7d$$GT$17hecb7ff6c377d2913E+0x32>
 8001234:	e7ff      	b.n	8001236 <_ZN4core3ptr189drop_in_place$LT$embassy_usb..UsbDevice$LT$embassy_stm32..usb_otg..usb..Driver$LT$embassy_stm32.._generated..peripherals..USB_OTG_FS$GT$$GT$..handle_control..$u7b$$u7b$closure$u7d$$u7d$$GT$17hecb7ff6c377d2913E+0x1e>
 8001236:	9802      	ldr	r0, [sp, #8]
 8001238:	2804      	cmp	r0, #4
 800123a:	d00b      	beq.n	8001254 <_ZN4core3ptr189drop_in_place$LT$embassy_usb..UsbDevice$LT$embassy_stm32..usb_otg..usb..Driver$LT$embassy_stm32.._generated..peripherals..USB_OTG_FS$GT$$GT$..handle_control..$u7b$$u7b$closure$u7d$$u7d$$GT$17hecb7ff6c377d2913E+0x3c>
 800123c:	e7ff      	b.n	800123e <_ZN4core3ptr189drop_in_place$LT$embassy_usb..UsbDevice$LT$embassy_stm32..usb_otg..usb..Driver$LT$embassy_stm32.._generated..peripherals..USB_OTG_FS$GT$$GT$..handle_control..$u7b$$u7b$closure$u7d$$u7d$$GT$17hecb7ff6c377d2913E+0x26>
 800123e:	f50d 7d68 	add.w	sp, sp, #928	; 0x3a0
 8001242:	bd80      	pop	{r7, pc}
 8001244:	f50d 7d68 	add.w	sp, sp, #928	; 0x3a0
 8001248:	bd80      	pop	{r7, pc}
 800124a:	9801      	ldr	r0, [sp, #4]
 800124c:	3020      	adds	r0, #32
 800124e:	f000 f81b 	bl	8001288 <_ZN4core3ptr192drop_in_place$LT$embassy_usb..UsbDevice$LT$embassy_stm32..usb_otg..usb..Driver$LT$embassy_stm32.._generated..peripherals..USB_OTG_FS$GT$$GT$..handle_control_in..$u7b$$u7b$closure$u7d$$u7d$$GT$17h49a2306151c905f3E>
 8001252:	e004      	b.n	800125e <_ZN4core3ptr189drop_in_place$LT$embassy_usb..UsbDevice$LT$embassy_stm32..usb_otg..usb..Driver$LT$embassy_stm32.._generated..peripherals..USB_OTG_FS$GT$$GT$..handle_control..$u7b$$u7b$closure$u7d$$u7d$$GT$17hecb7ff6c377d2913E+0x46>
 8001254:	9801      	ldr	r0, [sp, #4]
 8001256:	3020      	adds	r0, #32
 8001258:	f000 f866 	bl	8001328 <_ZN4core3ptr193drop_in_place$LT$embassy_usb..UsbDevice$LT$embassy_stm32..usb_otg..usb..Driver$LT$embassy_stm32.._generated..peripherals..USB_OTG_FS$GT$$GT$..handle_control_out..$u7b$$u7b$closure$u7d$$u7d$$GT$17hb51f946ab1dc9e11E>
 800125c:	e7ff      	b.n	800125e <_ZN4core3ptr189drop_in_place$LT$embassy_usb..UsbDevice$LT$embassy_stm32..usb_otg..usb..Driver$LT$embassy_stm32.._generated..peripherals..USB_OTG_FS$GT$$GT$..handle_control..$u7b$$u7b$closure$u7d$$u7d$$GT$17hecb7ff6c377d2913E+0x46>
 800125e:	f50d 7d68 	add.w	sp, sp, #928	; 0x3a0
 8001262:	bd80      	pop	{r7, pc}

08001264 <_ZN4core3ptr191drop_in_place$LT$$LT$embassy_stm32..usb_otg..usb..Bus$LT$embassy_stm32.._generated..peripherals..USB_OTG_FS$GT$$u20$as$u20$embassy_usb_driver..Bus$GT$..enable..$u7b$$u7b$closure$u7d$$u7d$$GT$17h599526db9bde2fbaE>:
 8001264:	b081      	sub	sp, #4
 8001266:	9000      	str	r0, [sp, #0]
 8001268:	7900      	ldrb	r0, [r0, #4]
 800126a:	b910      	cbnz	r0, 8001272 <_ZN4core3ptr191drop_in_place$LT$$LT$embassy_stm32..usb_otg..usb..Bus$LT$embassy_stm32.._generated..peripherals..USB_OTG_FS$GT$$u20$as$u20$embassy_usb_driver..Bus$GT$..enable..$u7b$$u7b$closure$u7d$$u7d$$GT$17h599526db9bde2fbaE+0xe>
 800126c:	e7ff      	b.n	800126e <_ZN4core3ptr191drop_in_place$LT$$LT$embassy_stm32..usb_otg..usb..Bus$LT$embassy_stm32.._generated..peripherals..USB_OTG_FS$GT$$u20$as$u20$embassy_usb_driver..Bus$GT$..enable..$u7b$$u7b$closure$u7d$$u7d$$GT$17h599526db9bde2fbaE+0xa>
 800126e:	b001      	add	sp, #4
 8001270:	4770      	bx	lr
 8001272:	b001      	add	sp, #4
 8001274:	4770      	bx	lr

08001276 <_ZN4core3ptr192drop_in_place$LT$$LT$embassy_stm32..usb_otg..usb..Bus$LT$embassy_stm32.._generated..peripherals..USB_OTG_FS$GT$$u20$as$u20$embassy_usb_driver..Bus$GT$..disable..$u7b$$u7b$closure$u7d$$u7d$$GT$17h2410495e76b96ba5E>:
 8001276:	b081      	sub	sp, #4
 8001278:	9000      	str	r0, [sp, #0]
 800127a:	7900      	ldrb	r0, [r0, #4]
 800127c:	b910      	cbnz	r0, 8001284 <_ZN4core3ptr192drop_in_place$LT$$LT$embassy_stm32..usb_otg..usb..Bus$LT$embassy_stm32.._generated..peripherals..USB_OTG_FS$GT$$u20$as$u20$embassy_usb_driver..Bus$GT$..disable..$u7b$$u7b$closure$u7d$$u7d$$GT$17h2410495e76b96ba5E+0xe>
 800127e:	e7ff      	b.n	8001280 <_ZN4core3ptr192drop_in_place$LT$$LT$embassy_stm32..usb_otg..usb..Bus$LT$embassy_stm32.._generated..peripherals..USB_OTG_FS$GT$$u20$as$u20$embassy_usb_driver..Bus$GT$..disable..$u7b$$u7b$closure$u7d$$u7d$$GT$17h2410495e76b96ba5E+0xa>
 8001280:	b001      	add	sp, #4
 8001282:	4770      	bx	lr
 8001284:	b001      	add	sp, #4
 8001286:	4770      	bx	lr

08001288 <_ZN4core3ptr192drop_in_place$LT$embassy_usb..UsbDevice$LT$embassy_stm32..usb_otg..usb..Driver$LT$embassy_stm32.._generated..peripherals..USB_OTG_FS$GT$$GT$..handle_control_in..$u7b$$u7b$closure$u7d$$u7d$$GT$17h49a2306151c905f3E>:
 8001288:	b580      	push	{r7, lr}
 800128a:	466f      	mov	r7, sp
 800128c:	f5ad 7d04 	sub.w	sp, sp, #528	; 0x210
 8001290:	9000      	str	r0, [sp, #0]
 8001292:	9082      	str	r0, [sp, #520]	; 0x208
 8001294:	7c80      	ldrb	r0, [r0, #18]
 8001296:	4601      	mov	r1, r0
 8001298:	9101      	str	r1, [sp, #4]
 800129a:	b158      	cbz	r0, 80012b4 <_ZN4core3ptr192drop_in_place$LT$embassy_usb..UsbDevice$LT$embassy_stm32..usb_otg..usb..Driver$LT$embassy_stm32.._generated..peripherals..USB_OTG_FS$GT$$GT$..handle_control_in..$u7b$$u7b$closure$u7d$$u7d$$GT$17h49a2306151c905f3E+0x2c>
 800129c:	e7ff      	b.n	800129e <_ZN4core3ptr192drop_in_place$LT$embassy_usb..UsbDevice$LT$embassy_stm32..usb_otg..usb..Driver$LT$embassy_stm32.._generated..peripherals..USB_OTG_FS$GT$$GT$..handle_control_in..$u7b$$u7b$closure$u7d$$u7d$$GT$17h49a2306151c905f3E+0x16>
 800129e:	9801      	ldr	r0, [sp, #4]
 80012a0:	2803      	cmp	r0, #3
 80012a2:	d00a      	beq.n	80012ba <_ZN4core3ptr192drop_in_place$LT$embassy_usb..UsbDevice$LT$embassy_stm32..usb_otg..usb..Driver$LT$embassy_stm32.._generated..peripherals..USB_OTG_FS$GT$$GT$..handle_control_in..$u7b$$u7b$closure$u7d$$u7d$$GT$17h49a2306151c905f3E+0x32>
 80012a4:	e7ff      	b.n	80012a6 <_ZN4core3ptr192drop_in_place$LT$embassy_usb..UsbDevice$LT$embassy_stm32..usb_otg..usb..Driver$LT$embassy_stm32.._generated..peripherals..USB_OTG_FS$GT$$GT$..handle_control_in..$u7b$$u7b$closure$u7d$$u7d$$GT$17h49a2306151c905f3E+0x1e>
 80012a6:	9801      	ldr	r0, [sp, #4]
 80012a8:	2804      	cmp	r0, #4
 80012aa:	d00b      	beq.n	80012c4 <_ZN4core3ptr192drop_in_place$LT$embassy_usb..UsbDevice$LT$embassy_stm32..usb_otg..usb..Driver$LT$embassy_stm32.._generated..peripherals..USB_OTG_FS$GT$$GT$..handle_control_in..$u7b$$u7b$closure$u7d$$u7d$$GT$17h49a2306151c905f3E+0x3c>
 80012ac:	e7ff      	b.n	80012ae <_ZN4core3ptr192drop_in_place$LT$embassy_usb..UsbDevice$LT$embassy_stm32..usb_otg..usb..Driver$LT$embassy_stm32.._generated..peripherals..USB_OTG_FS$GT$$GT$..handle_control_in..$u7b$$u7b$closure$u7d$$u7d$$GT$17h49a2306151c905f3E+0x26>
 80012ae:	f50d 7d04 	add.w	sp, sp, #528	; 0x210
 80012b2:	bd80      	pop	{r7, pc}
 80012b4:	f50d 7d04 	add.w	sp, sp, #528	; 0x210
 80012b8:	bd80      	pop	{r7, pc}
 80012ba:	9800      	ldr	r0, [sp, #0]
 80012bc:	3014      	adds	r0, #20
 80012be:	f000 f8b7 	bl	8001430 <_ZN4core3ptr208drop_in_place$LT$$LT$embassy_stm32..usb_otg..usb..ControlPipe$LT$embassy_stm32.._generated..peripherals..USB_OTG_FS$GT$$u20$as$u20$embassy_usb_driver..ControlPipe$GT$..data_in..$u7b$$u7b$closure$u7d$$u7d$$GT$17h770e4fc519515217E>
 80012c2:	e004      	b.n	80012ce <_ZN4core3ptr192drop_in_place$LT$embassy_usb..UsbDevice$LT$embassy_stm32..usb_otg..usb..Driver$LT$embassy_stm32.._generated..peripherals..USB_OTG_FS$GT$$GT$..handle_control_in..$u7b$$u7b$closure$u7d$$u7d$$GT$17h49a2306151c905f3E+0x46>
 80012c4:	9800      	ldr	r0, [sp, #0]
 80012c6:	3014      	adds	r0, #20
 80012c8:	f000 f8a9 	bl	800141e <_ZN4core3ptr207drop_in_place$LT$$LT$embassy_stm32..usb_otg..usb..ControlPipe$LT$embassy_stm32.._generated..peripherals..USB_OTG_FS$GT$$u20$as$u20$embassy_usb_driver..ControlPipe$GT$..reject..$u7b$$u7b$closure$u7d$$u7d$$GT$17h2cc2340477866845E>
 80012cc:	e7ff      	b.n	80012ce <_ZN4core3ptr192drop_in_place$LT$embassy_usb..UsbDevice$LT$embassy_stm32..usb_otg..usb..Driver$LT$embassy_stm32.._generated..peripherals..USB_OTG_FS$GT$$GT$..handle_control_in..$u7b$$u7b$closure$u7d$$u7d$$GT$17h49a2306151c905f3E+0x46>
 80012ce:	f50d 7d04 	add.w	sp, sp, #528	; 0x210
 80012d2:	bd80      	pop	{r7, pc}

080012d4 <_ZN4core3ptr192drop_in_place$LT$embassy_usb..UsbDevice$LT$embassy_stm32..usb_otg..usb..Driver$LT$embassy_stm32.._generated..peripherals..USB_OTG_FS$GT$$GT$..run_until_suspend..$u7b$$u7b$closure$u7d$$u7d$$GT$17h19d8e3c29d54c43eE>:
 80012d4:	b580      	push	{r7, lr}
 80012d6:	466f      	mov	r7, sp
 80012d8:	f5ad 7d48 	sub.w	sp, sp, #800	; 0x320
 80012dc:	9001      	str	r0, [sp, #4]
 80012de:	90c6      	str	r0, [sp, #792]	; 0x318
 80012e0:	7a00      	ldrb	r0, [r0, #8]
 80012e2:	4601      	mov	r1, r0
 80012e4:	9102      	str	r1, [sp, #8]
 80012e6:	2805      	cmp	r0, #5
 80012e8:	d805      	bhi.n	80012f6 <_ZN4core3ptr192drop_in_place$LT$embassy_usb..UsbDevice$LT$embassy_stm32..usb_otg..usb..Driver$LT$embassy_stm32.._generated..peripherals..USB_OTG_FS$GT$$GT$..run_until_suspend..$u7b$$u7b$closure$u7d$$u7d$$GT$17h19d8e3c29d54c43eE+0x22>
 80012ea:	9902      	ldr	r1, [sp, #8]
 80012ec:	e8df f001 	tbb	[pc, r1]
 80012f0:	09030306 	.word	0x09030306
 80012f4:	130e      	.short	0x130e
 80012f6:	f50d 7d48 	add.w	sp, sp, #800	; 0x320
 80012fa:	bd80      	pop	{r7, pc}
 80012fc:	f50d 7d48 	add.w	sp, sp, #800	; 0x320
 8001300:	bd80      	pop	{r7, pc}
 8001302:	9801      	ldr	r0, [sp, #4]
 8001304:	300c      	adds	r0, #12
 8001306:	f000 f95d 	bl	80015c4 <_ZN4core3ptr416drop_in_place$LT$embassy_futures..select..Select$LT$$LT$embassy_stm32..usb_otg..usb..Bus$LT$embassy_stm32.._generated..peripherals..USB_OTG_FS$GT$$u20$as$u20$embassy_usb_driver..Bus$GT$..poll..$u7b$$u7b$closure$u7d$$u7d$$C$$LT$embassy_stm32..usb_otg..usb..ControlPipe$LT$embassy_stm32.._generated..peripherals..USB_OTG_FS$GT$$u20$as$u20$embassy_usb_driver..ControlPipe$GT$..setup..$u7b$$u7b$closure$u7d$$u7d$$GT$$GT$17hcdcb26a46db0f236E>
 800130a:	e009      	b.n	8001320 <_ZN4core3ptr192drop_in_place$LT$embassy_usb..UsbDevice$LT$embassy_stm32..usb_otg..usb..Driver$LT$embassy_stm32.._generated..peripherals..USB_OTG_FS$GT$$GT$..run_until_suspend..$u7b$$u7b$closure$u7d$$u7d$$GT$17h19d8e3c29d54c43eE+0x4c>
 800130c:	9801      	ldr	r0, [sp, #4]
 800130e:	300c      	adds	r0, #12
 8001310:	f7ff ff4f 	bl	80011b2 <_ZN4core3ptr187drop_in_place$LT$embassy_usb..Inner$LT$embassy_stm32..usb_otg..usb..Driver$LT$embassy_stm32.._generated..peripherals..USB_OTG_FS$GT$$GT$..handle_bus_event..$u7b$$u7b$closure$u7d$$u7d$$GT$17hc5daa725cea264dfE>
 8001314:	e004      	b.n	8001320 <_ZN4core3ptr192drop_in_place$LT$embassy_usb..UsbDevice$LT$embassy_stm32..usb_otg..usb..Driver$LT$embassy_stm32.._generated..peripherals..USB_OTG_FS$GT$$GT$..run_until_suspend..$u7b$$u7b$closure$u7d$$u7d$$GT$17h19d8e3c29d54c43eE+0x4c>
 8001316:	9801      	ldr	r0, [sp, #4]
 8001318:	300c      	adds	r0, #12
 800131a:	f7ff ff7d 	bl	8001218 <_ZN4core3ptr189drop_in_place$LT$embassy_usb..UsbDevice$LT$embassy_stm32..usb_otg..usb..Driver$LT$embassy_stm32.._generated..peripherals..USB_OTG_FS$GT$$GT$..handle_control..$u7b$$u7b$closure$u7d$$u7d$$GT$17hecb7ff6c377d2913E>
 800131e:	e7ff      	b.n	8001320 <_ZN4core3ptr192drop_in_place$LT$embassy_usb..UsbDevice$LT$embassy_stm32..usb_otg..usb..Driver$LT$embassy_stm32.._generated..peripherals..USB_OTG_FS$GT$$GT$..run_until_suspend..$u7b$$u7b$closure$u7d$$u7d$$GT$17h19d8e3c29d54c43eE+0x4c>
 8001320:	f50d 7d48 	add.w	sp, sp, #800	; 0x320
 8001324:	bd80      	pop	{r7, pc}
 8001326:	d4d4      	bmi.n	80012d2 <_ZN4core3ptr192drop_in_place$LT$embassy_usb..UsbDevice$LT$embassy_stm32..usb_otg..usb..Driver$LT$embassy_stm32.._generated..peripherals..USB_OTG_FS$GT$$GT$..handle_control_in..$u7b$$u7b$closure$u7d$$u7d$$GT$17h49a2306151c905f3E+0x4a>

08001328 <_ZN4core3ptr193drop_in_place$LT$embassy_usb..UsbDevice$LT$embassy_stm32..usb_otg..usb..Driver$LT$embassy_stm32.._generated..peripherals..USB_OTG_FS$GT$$GT$..handle_control_out..$u7b$$u7b$closure$u7d$$u7d$$GT$17hb51f946ab1dc9e11E>:
 8001328:	b580      	push	{r7, lr}
 800132a:	466f      	mov	r7, sp
 800132c:	f5ad 7d56 	sub.w	sp, sp, #856	; 0x358
 8001330:	9000      	str	r0, [sp, #0]
 8001332:	90d4      	str	r0, [sp, #848]	; 0x350
 8001334:	f890 0030 	ldrb.w	r0, [r0, #48]	; 0x30
 8001338:	4601      	mov	r1, r0
 800133a:	9101      	str	r1, [sp, #4]
 800133c:	2807      	cmp	r0, #7
 800133e:	d806      	bhi.n	800134e <_ZN4core3ptr193drop_in_place$LT$embassy_usb..UsbDevice$LT$embassy_stm32..usb_otg..usb..Driver$LT$embassy_stm32.._generated..peripherals..USB_OTG_FS$GT$$GT$..handle_control_out..$u7b$$u7b$closure$u7d$$u7d$$GT$17hb51f946ab1dc9e11E+0x26>
 8001340:	9901      	ldr	r1, [sp, #4]
 8001342:	e8df f001 	tbb	[pc, r1]
 8001346:	0407      	.short	0x0407
 8001348:	140f0a04 	.word	0x140f0a04
 800134c:	1e19      	.short	0x1e19
 800134e:	f50d 7d56 	add.w	sp, sp, #856	; 0x358
 8001352:	bd80      	pop	{r7, pc}
 8001354:	f50d 7d56 	add.w	sp, sp, #856	; 0x358
 8001358:	bd80      	pop	{r7, pc}
 800135a:	9800      	ldr	r0, [sp, #0]
 800135c:	3034      	adds	r0, #52	; 0x34
 800135e:	f000 f85e 	bl	800141e <_ZN4core3ptr207drop_in_place$LT$$LT$embassy_stm32..usb_otg..usb..ControlPipe$LT$embassy_stm32.._generated..peripherals..USB_OTG_FS$GT$$u20$as$u20$embassy_usb_driver..ControlPipe$GT$..reject..$u7b$$u7b$closure$u7d$$u7d$$GT$17h2cc2340477866845E>
 8001362:	e013      	b.n	800138c <_ZN4core3ptr193drop_in_place$LT$embassy_usb..UsbDevice$LT$embassy_stm32..usb_otg..usb..Driver$LT$embassy_stm32.._generated..peripherals..USB_OTG_FS$GT$$GT$..handle_control_out..$u7b$$u7b$closure$u7d$$u7d$$GT$17hb51f946ab1dc9e11E+0x64>
 8001364:	9800      	ldr	r0, [sp, #0]
 8001366:	3050      	adds	r0, #80	; 0x50
 8001368:	f000 f89c 	bl	80014a4 <_ZN4core3ptr209drop_in_place$LT$$LT$embassy_stm32..usb_otg..usb..ControlPipe$LT$embassy_stm32.._generated..peripherals..USB_OTG_FS$GT$$u20$as$u20$embassy_usb_driver..ControlPipe$GT$..data_out..$u7b$$u7b$closure$u7d$$u7d$$GT$17h6afe0b575f53adabE>
 800136c:	e00e      	b.n	800138c <_ZN4core3ptr193drop_in_place$LT$embassy_usb..UsbDevice$LT$embassy_stm32..usb_otg..usb..Driver$LT$embassy_stm32.._generated..peripherals..USB_OTG_FS$GT$$GT$..handle_control_out..$u7b$$u7b$closure$u7d$$u7d$$GT$17hb51f946ab1dc9e11E+0x64>
 800136e:	9800      	ldr	r0, [sp, #0]
 8001370:	3034      	adds	r0, #52	; 0x34
 8001372:	f000 f8c8 	bl	8001506 <_ZN4core3ptr219drop_in_place$LT$$LT$embassy_stm32..usb_otg..usb..ControlPipe$LT$embassy_stm32.._generated..peripherals..USB_OTG_FS$GT$$u20$as$u20$embassy_usb_driver..ControlPipe$GT$..accept_set_address..$u7b$$u7b$closure$u7d$$u7d$$GT$17h2836cf305b389144E>
 8001376:	e00d      	b.n	8001394 <_ZN4core3ptr193drop_in_place$LT$embassy_usb..UsbDevice$LT$embassy_stm32..usb_otg..usb..Driver$LT$embassy_stm32.._generated..peripherals..USB_OTG_FS$GT$$GT$..handle_control_out..$u7b$$u7b$closure$u7d$$u7d$$GT$17hb51f946ab1dc9e11E+0x6c>
 8001378:	9800      	ldr	r0, [sp, #0]
 800137a:	3034      	adds	r0, #52	; 0x34
 800137c:	f000 f836 	bl	80013ec <_ZN4core3ptr207drop_in_place$LT$$LT$embassy_stm32..usb_otg..usb..ControlPipe$LT$embassy_stm32.._generated..peripherals..USB_OTG_FS$GT$$u20$as$u20$embassy_usb_driver..ControlPipe$GT$..accept..$u7b$$u7b$closure$u7d$$u7d$$GT$17h2926edfff8873e36E>
 8001380:	e008      	b.n	8001394 <_ZN4core3ptr193drop_in_place$LT$embassy_usb..UsbDevice$LT$embassy_stm32..usb_otg..usb..Driver$LT$embassy_stm32.._generated..peripherals..USB_OTG_FS$GT$$GT$..handle_control_out..$u7b$$u7b$closure$u7d$$u7d$$GT$17hb51f946ab1dc9e11E+0x6c>
 8001382:	9800      	ldr	r0, [sp, #0]
 8001384:	3034      	adds	r0, #52	; 0x34
 8001386:	f000 f84a 	bl	800141e <_ZN4core3ptr207drop_in_place$LT$$LT$embassy_stm32..usb_otg..usb..ControlPipe$LT$embassy_stm32.._generated..peripherals..USB_OTG_FS$GT$$u20$as$u20$embassy_usb_driver..ControlPipe$GT$..reject..$u7b$$u7b$closure$u7d$$u7d$$GT$17h2cc2340477866845E>
 800138a:	e004      	b.n	8001396 <_ZN4core3ptr193drop_in_place$LT$embassy_usb..UsbDevice$LT$embassy_stm32..usb_otg..usb..Driver$LT$embassy_stm32.._generated..peripherals..USB_OTG_FS$GT$$GT$..handle_control_out..$u7b$$u7b$closure$u7d$$u7d$$GT$17hb51f946ab1dc9e11E+0x6e>
 800138c:	e7ff      	b.n	800138e <_ZN4core3ptr193drop_in_place$LT$embassy_usb..UsbDevice$LT$embassy_stm32..usb_otg..usb..Driver$LT$embassy_stm32.._generated..peripherals..USB_OTG_FS$GT$$GT$..handle_control_out..$u7b$$u7b$closure$u7d$$u7d$$GT$17hb51f946ab1dc9e11E+0x66>
 800138e:	f50d 7d56 	add.w	sp, sp, #856	; 0x358
 8001392:	bd80      	pop	{r7, pc}
 8001394:	e7ff      	b.n	8001396 <_ZN4core3ptr193drop_in_place$LT$embassy_usb..UsbDevice$LT$embassy_stm32..usb_otg..usb..Driver$LT$embassy_stm32.._generated..peripherals..USB_OTG_FS$GT$$GT$..handle_control_out..$u7b$$u7b$closure$u7d$$u7d$$GT$17hb51f946ab1dc9e11E+0x6e>
 8001396:	e7fa      	b.n	800138e <_ZN4core3ptr193drop_in_place$LT$embassy_usb..UsbDevice$LT$embassy_stm32..usb_otg..usb..Driver$LT$embassy_stm32.._generated..peripherals..USB_OTG_FS$GT$$GT$..handle_control_out..$u7b$$u7b$closure$u7d$$u7d$$GT$17hb51f946ab1dc9e11E+0x66>

08001398 <_ZN4core3ptr205drop_in_place$LT$embassy_usb..class..cdc_acm..CdcAcmClass$LT$embassy_stm32..usb_otg..usb..Driver$LT$embassy_stm32.._generated..peripherals..USB_OTG_FS$GT$$GT$..write_packet..$u7b$$u7b$closure$u7d$$u7d$$GT$17h0ff52076a054aae0E>:
 8001398:	b580      	push	{r7, lr}
 800139a:	466f      	mov	r7, sp
 800139c:	b0b4      	sub	sp, #208	; 0xd0
 800139e:	9001      	str	r0, [sp, #4]
 80013a0:	9033      	str	r0, [sp, #204]	; 0xcc
 80013a2:	f890 004c 	ldrb.w	r0, [r0, #76]	; 0x4c
 80013a6:	4601      	mov	r1, r0
 80013a8:	9102      	str	r1, [sp, #8]
 80013aa:	b130      	cbz	r0, 80013ba <_ZN4core3ptr205drop_in_place$LT$embassy_usb..class..cdc_acm..CdcAcmClass$LT$embassy_stm32..usb_otg..usb..Driver$LT$embassy_stm32.._generated..peripherals..USB_OTG_FS$GT$$GT$..write_packet..$u7b$$u7b$closure$u7d$$u7d$$GT$17h0ff52076a054aae0E+0x22>
 80013ac:	e7ff      	b.n	80013ae <_ZN4core3ptr205drop_in_place$LT$embassy_usb..class..cdc_acm..CdcAcmClass$LT$embassy_stm32..usb_otg..usb..Driver$LT$embassy_stm32.._generated..peripherals..USB_OTG_FS$GT$$GT$..write_packet..$u7b$$u7b$closure$u7d$$u7d$$GT$17h0ff52076a054aae0E+0x16>
 80013ae:	9802      	ldr	r0, [sp, #8]
 80013b0:	2803      	cmp	r0, #3
 80013b2:	d004      	beq.n	80013be <_ZN4core3ptr205drop_in_place$LT$embassy_usb..class..cdc_acm..CdcAcmClass$LT$embassy_stm32..usb_otg..usb..Driver$LT$embassy_stm32.._generated..peripherals..USB_OTG_FS$GT$$GT$..write_packet..$u7b$$u7b$closure$u7d$$u7d$$GT$17h0ff52076a054aae0E+0x26>
 80013b4:	e7ff      	b.n	80013b6 <_ZN4core3ptr205drop_in_place$LT$embassy_usb..class..cdc_acm..CdcAcmClass$LT$embassy_stm32..usb_otg..usb..Driver$LT$embassy_stm32.._generated..peripherals..USB_OTG_FS$GT$$GT$..write_packet..$u7b$$u7b$closure$u7d$$u7d$$GT$17h0ff52076a054aae0E+0x1e>
 80013b6:	b034      	add	sp, #208	; 0xd0
 80013b8:	bd80      	pop	{r7, pc}
 80013ba:	b034      	add	sp, #208	; 0xd0
 80013bc:	bd80      	pop	{r7, pc}
 80013be:	9801      	ldr	r0, [sp, #4]
 80013c0:	300c      	adds	r0, #12
 80013c2:	f000 f8b8 	bl	8001536 <_ZN4core3ptr236drop_in_place$LT$$LT$embassy_stm32..usb_otg..usb..Endpoint$LT$embassy_stm32.._generated..peripherals..USB_OTG_FS$C$embassy_stm32..usb_otg..usb..In$GT$$u20$as$u20$embassy_usb_driver..EndpointIn$GT$..write..$u7b$$u7b$closure$u7d$$u7d$$GT$17hd9a8bf4522609915E>
 80013c6:	b034      	add	sp, #208	; 0xd0
 80013c8:	bd80      	pop	{r7, pc}

080013ca <_ZN4core3ptr206drop_in_place$LT$$LT$embassy_stm32..usb_otg..usb..ControlPipe$LT$embassy_stm32.._generated..peripherals..USB_OTG_FS$GT$$u20$as$u20$embassy_usb_driver..ControlPipe$GT$..setup..$u7b$$u7b$closure$u7d$$u7d$$GT$17h4263504789b32868E>:
 80013ca:	b089      	sub	sp, #36	; 0x24
 80013cc:	9008      	str	r0, [sp, #32]
 80013ce:	7a00      	ldrb	r0, [r0, #8]
 80013d0:	4601      	mov	r1, r0
 80013d2:	9100      	str	r1, [sp, #0]
 80013d4:	b130      	cbz	r0, 80013e4 <_ZN4core3ptr206drop_in_place$LT$$LT$embassy_stm32..usb_otg..usb..ControlPipe$LT$embassy_stm32.._generated..peripherals..USB_OTG_FS$GT$$u20$as$u20$embassy_usb_driver..ControlPipe$GT$..setup..$u7b$$u7b$closure$u7d$$u7d$$GT$17h4263504789b32868E+0x1a>
 80013d6:	e7ff      	b.n	80013d8 <_ZN4core3ptr206drop_in_place$LT$$LT$embassy_stm32..usb_otg..usb..ControlPipe$LT$embassy_stm32.._generated..peripherals..USB_OTG_FS$GT$$u20$as$u20$embassy_usb_driver..ControlPipe$GT$..setup..$u7b$$u7b$closure$u7d$$u7d$$GT$17h4263504789b32868E+0xe>
 80013d8:	9800      	ldr	r0, [sp, #0]
 80013da:	2803      	cmp	r0, #3
 80013dc:	d004      	beq.n	80013e8 <_ZN4core3ptr206drop_in_place$LT$$LT$embassy_stm32..usb_otg..usb..ControlPipe$LT$embassy_stm32.._generated..peripherals..USB_OTG_FS$GT$$u20$as$u20$embassy_usb_driver..ControlPipe$GT$..setup..$u7b$$u7b$closure$u7d$$u7d$$GT$17h4263504789b32868E+0x1e>
 80013de:	e7ff      	b.n	80013e0 <_ZN4core3ptr206drop_in_place$LT$$LT$embassy_stm32..usb_otg..usb..ControlPipe$LT$embassy_stm32.._generated..peripherals..USB_OTG_FS$GT$$u20$as$u20$embassy_usb_driver..ControlPipe$GT$..setup..$u7b$$u7b$closure$u7d$$u7d$$GT$17h4263504789b32868E+0x16>
 80013e0:	b009      	add	sp, #36	; 0x24
 80013e2:	4770      	bx	lr
 80013e4:	b009      	add	sp, #36	; 0x24
 80013e6:	4770      	bx	lr
 80013e8:	b009      	add	sp, #36	; 0x24
 80013ea:	4770      	bx	lr

080013ec <_ZN4core3ptr207drop_in_place$LT$$LT$embassy_stm32..usb_otg..usb..ControlPipe$LT$embassy_stm32.._generated..peripherals..USB_OTG_FS$GT$$u20$as$u20$embassy_usb_driver..ControlPipe$GT$..accept..$u7b$$u7b$closure$u7d$$u7d$$GT$17h2926edfff8873e36E>:
 80013ec:	b580      	push	{r7, lr}
 80013ee:	466f      	mov	r7, sp
 80013f0:	b0b4      	sub	sp, #208	; 0xd0
 80013f2:	9001      	str	r0, [sp, #4]
 80013f4:	9033      	str	r0, [sp, #204]	; 0xcc
 80013f6:	f890 0044 	ldrb.w	r0, [r0, #68]	; 0x44
 80013fa:	4601      	mov	r1, r0
 80013fc:	9102      	str	r1, [sp, #8]
 80013fe:	b130      	cbz	r0, 800140e <_ZN4core3ptr207drop_in_place$LT$$LT$embassy_stm32..usb_otg..usb..ControlPipe$LT$embassy_stm32.._generated..peripherals..USB_OTG_FS$GT$$u20$as$u20$embassy_usb_driver..ControlPipe$GT$..accept..$u7b$$u7b$closure$u7d$$u7d$$GT$17h2926edfff8873e36E+0x22>
 8001400:	e7ff      	b.n	8001402 <_ZN4core3ptr207drop_in_place$LT$$LT$embassy_stm32..usb_otg..usb..ControlPipe$LT$embassy_stm32.._generated..peripherals..USB_OTG_FS$GT$$u20$as$u20$embassy_usb_driver..ControlPipe$GT$..accept..$u7b$$u7b$closure$u7d$$u7d$$GT$17h2926edfff8873e36E+0x16>
 8001402:	9802      	ldr	r0, [sp, #8]
 8001404:	2803      	cmp	r0, #3
 8001406:	d004      	beq.n	8001412 <_ZN4core3ptr207drop_in_place$LT$$LT$embassy_stm32..usb_otg..usb..ControlPipe$LT$embassy_stm32.._generated..peripherals..USB_OTG_FS$GT$$u20$as$u20$embassy_usb_driver..ControlPipe$GT$..accept..$u7b$$u7b$closure$u7d$$u7d$$GT$17h2926edfff8873e36E+0x26>
 8001408:	e7ff      	b.n	800140a <_ZN4core3ptr207drop_in_place$LT$$LT$embassy_stm32..usb_otg..usb..ControlPipe$LT$embassy_stm32.._generated..peripherals..USB_OTG_FS$GT$$u20$as$u20$embassy_usb_driver..ControlPipe$GT$..accept..$u7b$$u7b$closure$u7d$$u7d$$GT$17h2926edfff8873e36E+0x1e>
 800140a:	b034      	add	sp, #208	; 0xd0
 800140c:	bd80      	pop	{r7, pc}
 800140e:	b034      	add	sp, #208	; 0xd0
 8001410:	bd80      	pop	{r7, pc}
 8001412:	9801      	ldr	r0, [sp, #4]
 8001414:	3004      	adds	r0, #4
 8001416:	f000 f88e 	bl	8001536 <_ZN4core3ptr236drop_in_place$LT$$LT$embassy_stm32..usb_otg..usb..Endpoint$LT$embassy_stm32.._generated..peripherals..USB_OTG_FS$C$embassy_stm32..usb_otg..usb..In$GT$$u20$as$u20$embassy_usb_driver..EndpointIn$GT$..write..$u7b$$u7b$closure$u7d$$u7d$$GT$17hd9a8bf4522609915E>
 800141a:	b034      	add	sp, #208	; 0xd0
 800141c:	bd80      	pop	{r7, pc}

0800141e <_ZN4core3ptr207drop_in_place$LT$$LT$embassy_stm32..usb_otg..usb..ControlPipe$LT$embassy_stm32.._generated..peripherals..USB_OTG_FS$GT$$u20$as$u20$embassy_usb_driver..ControlPipe$GT$..reject..$u7b$$u7b$closure$u7d$$u7d$$GT$17h2cc2340477866845E>:
 800141e:	b081      	sub	sp, #4
 8001420:	9000      	str	r0, [sp, #0]
 8001422:	7900      	ldrb	r0, [r0, #4]
 8001424:	b910      	cbnz	r0, 800142c <_ZN4core3ptr207drop_in_place$LT$$LT$embassy_stm32..usb_otg..usb..ControlPipe$LT$embassy_stm32.._generated..peripherals..USB_OTG_FS$GT$$u20$as$u20$embassy_usb_driver..ControlPipe$GT$..reject..$u7b$$u7b$closure$u7d$$u7d$$GT$17h2cc2340477866845E+0xe>
 8001426:	e7ff      	b.n	8001428 <_ZN4core3ptr207drop_in_place$LT$$LT$embassy_stm32..usb_otg..usb..ControlPipe$LT$embassy_stm32.._generated..peripherals..USB_OTG_FS$GT$$u20$as$u20$embassy_usb_driver..ControlPipe$GT$..reject..$u7b$$u7b$closure$u7d$$u7d$$GT$17h2cc2340477866845E+0xa>
 8001428:	b001      	add	sp, #4
 800142a:	4770      	bx	lr
 800142c:	b001      	add	sp, #4
 800142e:	4770      	bx	lr

08001430 <_ZN4core3ptr208drop_in_place$LT$$LT$embassy_stm32..usb_otg..usb..ControlPipe$LT$embassy_stm32.._generated..peripherals..USB_OTG_FS$GT$$u20$as$u20$embassy_usb_driver..ControlPipe$GT$..data_in..$u7b$$u7b$closure$u7d$$u7d$$GT$17h770e4fc519515217E>:
 8001430:	b580      	push	{r7, lr}
 8001432:	466f      	mov	r7, sp
 8001434:	b0d4      	sub	sp, #336	; 0x150
 8001436:	9000      	str	r0, [sp, #0]
 8001438:	9052      	str	r0, [sp, #328]	; 0x148
 800143a:	7e40      	ldrb	r0, [r0, #25]
 800143c:	4601      	mov	r1, r0
 800143e:	9101      	str	r1, [sp, #4]
 8001440:	b150      	cbz	r0, 8001458 <_ZN4core3ptr208drop_in_place$LT$$LT$embassy_stm32..usb_otg..usb..ControlPipe$LT$embassy_stm32.._generated..peripherals..USB_OTG_FS$GT$$u20$as$u20$embassy_usb_driver..ControlPipe$GT$..data_in..$u7b$$u7b$closure$u7d$$u7d$$GT$17h770e4fc519515217E+0x28>
 8001442:	e7ff      	b.n	8001444 <_ZN4core3ptr208drop_in_place$LT$$LT$embassy_stm32..usb_otg..usb..ControlPipe$LT$embassy_stm32.._generated..peripherals..USB_OTG_FS$GT$$u20$as$u20$embassy_usb_driver..ControlPipe$GT$..data_in..$u7b$$u7b$closure$u7d$$u7d$$GT$17h770e4fc519515217E+0x14>
 8001444:	9801      	ldr	r0, [sp, #4]
 8001446:	2803      	cmp	r0, #3
 8001448:	d008      	beq.n	800145c <_ZN4core3ptr208drop_in_place$LT$$LT$embassy_stm32..usb_otg..usb..ControlPipe$LT$embassy_stm32.._generated..peripherals..USB_OTG_FS$GT$$u20$as$u20$embassy_usb_driver..ControlPipe$GT$..data_in..$u7b$$u7b$closure$u7d$$u7d$$GT$17h770e4fc519515217E+0x2c>
 800144a:	e7ff      	b.n	800144c <_ZN4core3ptr208drop_in_place$LT$$LT$embassy_stm32..usb_otg..usb..ControlPipe$LT$embassy_stm32.._generated..peripherals..USB_OTG_FS$GT$$u20$as$u20$embassy_usb_driver..ControlPipe$GT$..data_in..$u7b$$u7b$closure$u7d$$u7d$$GT$17h770e4fc519515217E+0x1c>
 800144c:	9801      	ldr	r0, [sp, #4]
 800144e:	2804      	cmp	r0, #4
 8001450:	d009      	beq.n	8001466 <_ZN4core3ptr208drop_in_place$LT$$LT$embassy_stm32..usb_otg..usb..ControlPipe$LT$embassy_stm32.._generated..peripherals..USB_OTG_FS$GT$$u20$as$u20$embassy_usb_driver..ControlPipe$GT$..data_in..$u7b$$u7b$closure$u7d$$u7d$$GT$17h770e4fc519515217E+0x36>
 8001452:	e7ff      	b.n	8001454 <_ZN4core3ptr208drop_in_place$LT$$LT$embassy_stm32..usb_otg..usb..ControlPipe$LT$embassy_stm32.._generated..peripherals..USB_OTG_FS$GT$$u20$as$u20$embassy_usb_driver..ControlPipe$GT$..data_in..$u7b$$u7b$closure$u7d$$u7d$$GT$17h770e4fc519515217E+0x24>
 8001454:	b054      	add	sp, #336	; 0x150
 8001456:	bd80      	pop	{r7, pc}
 8001458:	b054      	add	sp, #336	; 0x150
 800145a:	bd80      	pop	{r7, pc}
 800145c:	9800      	ldr	r0, [sp, #0]
 800145e:	301c      	adds	r0, #28
 8001460:	f000 f869 	bl	8001536 <_ZN4core3ptr236drop_in_place$LT$$LT$embassy_stm32..usb_otg..usb..Endpoint$LT$embassy_stm32.._generated..peripherals..USB_OTG_FS$C$embassy_stm32..usb_otg..usb..In$GT$$u20$as$u20$embassy_usb_driver..EndpointIn$GT$..write..$u7b$$u7b$closure$u7d$$u7d$$GT$17hd9a8bf4522609915E>
 8001464:	e004      	b.n	8001470 <_ZN4core3ptr208drop_in_place$LT$$LT$embassy_stm32..usb_otg..usb..ControlPipe$LT$embassy_stm32.._generated..peripherals..USB_OTG_FS$GT$$u20$as$u20$embassy_usb_driver..ControlPipe$GT$..data_in..$u7b$$u7b$closure$u7d$$u7d$$GT$17h770e4fc519515217E+0x40>
 8001466:	9800      	ldr	r0, [sp, #0]
 8001468:	301c      	adds	r0, #28
 800146a:	f000 f87c 	bl	8001566 <_ZN4core3ptr237drop_in_place$LT$$LT$embassy_stm32..usb_otg..usb..Endpoint$LT$embassy_stm32.._generated..peripherals..USB_OTG_FS$C$embassy_stm32..usb_otg..usb..Out$GT$$u20$as$u20$embassy_usb_driver..EndpointOut$GT$..read..$u7b$$u7b$closure$u7d$$u7d$$GT$17h3a164241ce2fa35cE>
 800146e:	e7ff      	b.n	8001470 <_ZN4core3ptr208drop_in_place$LT$$LT$embassy_stm32..usb_otg..usb..ControlPipe$LT$embassy_stm32.._generated..peripherals..USB_OTG_FS$GT$$u20$as$u20$embassy_usb_driver..ControlPipe$GT$..data_in..$u7b$$u7b$closure$u7d$$u7d$$GT$17h770e4fc519515217E+0x40>
 8001470:	b054      	add	sp, #336	; 0x150
 8001472:	bd80      	pop	{r7, pc}

08001474 <_ZN4core3ptr208drop_in_place$LT$embassy_usb..class..cdc_acm..CdcAcmClass$LT$embassy_stm32..usb_otg..usb..Driver$LT$embassy_stm32.._generated..peripherals..USB_OTG_FS$GT$$GT$..wait_connection..$u7b$$u7b$closure$u7d$$u7d$$GT$17haf9ebd794dc3f2e5E>:
 8001474:	b580      	push	{r7, lr}
 8001476:	466f      	mov	r7, sp
 8001478:	b08e      	sub	sp, #56	; 0x38
 800147a:	9001      	str	r0, [sp, #4]
 800147c:	900c      	str	r0, [sp, #48]	; 0x30
 800147e:	7c00      	ldrb	r0, [r0, #16]
 8001480:	4601      	mov	r1, r0
 8001482:	9102      	str	r1, [sp, #8]
 8001484:	b130      	cbz	r0, 8001494 <_ZN4core3ptr208drop_in_place$LT$embassy_usb..class..cdc_acm..CdcAcmClass$LT$embassy_stm32..usb_otg..usb..Driver$LT$embassy_stm32.._generated..peripherals..USB_OTG_FS$GT$$GT$..wait_connection..$u7b$$u7b$closure$u7d$$u7d$$GT$17haf9ebd794dc3f2e5E+0x20>
 8001486:	e7ff      	b.n	8001488 <_ZN4core3ptr208drop_in_place$LT$embassy_usb..class..cdc_acm..CdcAcmClass$LT$embassy_stm32..usb_otg..usb..Driver$LT$embassy_stm32.._generated..peripherals..USB_OTG_FS$GT$$GT$..wait_connection..$u7b$$u7b$closure$u7d$$u7d$$GT$17haf9ebd794dc3f2e5E+0x14>
 8001488:	9802      	ldr	r0, [sp, #8]
 800148a:	2803      	cmp	r0, #3
 800148c:	d004      	beq.n	8001498 <_ZN4core3ptr208drop_in_place$LT$embassy_usb..class..cdc_acm..CdcAcmClass$LT$embassy_stm32..usb_otg..usb..Driver$LT$embassy_stm32.._generated..peripherals..USB_OTG_FS$GT$$GT$..wait_connection..$u7b$$u7b$closure$u7d$$u7d$$GT$17haf9ebd794dc3f2e5E+0x24>
 800148e:	e7ff      	b.n	8001490 <_ZN4core3ptr208drop_in_place$LT$embassy_usb..class..cdc_acm..CdcAcmClass$LT$embassy_stm32..usb_otg..usb..Driver$LT$embassy_stm32.._generated..peripherals..USB_OTG_FS$GT$$GT$..wait_connection..$u7b$$u7b$closure$u7d$$u7d$$GT$17haf9ebd794dc3f2e5E+0x1c>
 8001490:	b00e      	add	sp, #56	; 0x38
 8001492:	bd80      	pop	{r7, pc}
 8001494:	b00e      	add	sp, #56	; 0x38
 8001496:	bd80      	pop	{r7, pc}
 8001498:	9801      	ldr	r0, [sp, #4]
 800149a:	3004      	adds	r0, #4
 800149c:	f000 f874 	bl	8001588 <_ZN4core3ptr242drop_in_place$LT$$LT$embassy_stm32..usb_otg..usb..Endpoint$LT$embassy_stm32.._generated..peripherals..USB_OTG_FS$C$embassy_stm32..usb_otg..usb..Out$GT$$u20$as$u20$embassy_usb_driver..Endpoint$GT$..wait_enabled..$u7b$$u7b$closure$u7d$$u7d$$GT$17h3e18397ba1dca614E>
 80014a0:	b00e      	add	sp, #56	; 0x38
 80014a2:	bd80      	pop	{r7, pc}

080014a4 <_ZN4core3ptr209drop_in_place$LT$$LT$embassy_stm32..usb_otg..usb..ControlPipe$LT$embassy_stm32.._generated..peripherals..USB_OTG_FS$GT$$u20$as$u20$embassy_usb_driver..ControlPipe$GT$..data_out..$u7b$$u7b$closure$u7d$$u7d$$GT$17h6afe0b575f53adabE>:
 80014a4:	b580      	push	{r7, lr}
 80014a6:	466f      	mov	r7, sp
 80014a8:	b0a6      	sub	sp, #152	; 0x98
 80014aa:	9001      	str	r0, [sp, #4]
 80014ac:	9025      	str	r0, [sp, #148]	; 0x94
 80014ae:	f890 0034 	ldrb.w	r0, [r0, #52]	; 0x34
 80014b2:	4601      	mov	r1, r0
 80014b4:	9102      	str	r1, [sp, #8]
 80014b6:	b130      	cbz	r0, 80014c6 <_ZN4core3ptr209drop_in_place$LT$$LT$embassy_stm32..usb_otg..usb..ControlPipe$LT$embassy_stm32.._generated..peripherals..USB_OTG_FS$GT$$u20$as$u20$embassy_usb_driver..ControlPipe$GT$..data_out..$u7b$$u7b$closure$u7d$$u7d$$GT$17h6afe0b575f53adabE+0x22>
 80014b8:	e7ff      	b.n	80014ba <_ZN4core3ptr209drop_in_place$LT$$LT$embassy_stm32..usb_otg..usb..ControlPipe$LT$embassy_stm32.._generated..peripherals..USB_OTG_FS$GT$$u20$as$u20$embassy_usb_driver..ControlPipe$GT$..data_out..$u7b$$u7b$closure$u7d$$u7d$$GT$17h6afe0b575f53adabE+0x16>
 80014ba:	9802      	ldr	r0, [sp, #8]
 80014bc:	2803      	cmp	r0, #3
 80014be:	d004      	beq.n	80014ca <_ZN4core3ptr209drop_in_place$LT$$LT$embassy_stm32..usb_otg..usb..ControlPipe$LT$embassy_stm32.._generated..peripherals..USB_OTG_FS$GT$$u20$as$u20$embassy_usb_driver..ControlPipe$GT$..data_out..$u7b$$u7b$closure$u7d$$u7d$$GT$17h6afe0b575f53adabE+0x26>
 80014c0:	e7ff      	b.n	80014c2 <_ZN4core3ptr209drop_in_place$LT$$LT$embassy_stm32..usb_otg..usb..ControlPipe$LT$embassy_stm32.._generated..peripherals..USB_OTG_FS$GT$$u20$as$u20$embassy_usb_driver..ControlPipe$GT$..data_out..$u7b$$u7b$closure$u7d$$u7d$$GT$17h6afe0b575f53adabE+0x1e>
 80014c2:	b026      	add	sp, #152	; 0x98
 80014c4:	bd80      	pop	{r7, pc}
 80014c6:	b026      	add	sp, #152	; 0x98
 80014c8:	bd80      	pop	{r7, pc}
 80014ca:	9801      	ldr	r0, [sp, #4]
 80014cc:	f000 f84b 	bl	8001566 <_ZN4core3ptr237drop_in_place$LT$$LT$embassy_stm32..usb_otg..usb..Endpoint$LT$embassy_stm32.._generated..peripherals..USB_OTG_FS$C$embassy_stm32..usb_otg..usb..Out$GT$$u20$as$u20$embassy_usb_driver..EndpointOut$GT$..read..$u7b$$u7b$closure$u7d$$u7d$$GT$17h3a164241ce2fa35cE>
 80014d0:	b026      	add	sp, #152	; 0x98
 80014d2:	bd80      	pop	{r7, pc}

080014d4 <_ZN4core3ptr218drop_in_place$LT$embassy_futures..join..MaybeDone$LT$embassy_usb..UsbDevice$LT$embassy_stm32..usb_otg..usb..Driver$LT$embassy_stm32.._generated..peripherals..USB_OTG_FS$GT$$GT$..run..$u7b$$u7b$closure$u7d$$u7d$$GT$$GT$17h351b5d23affa712dE>:
 80014d4:	b580      	push	{r7, lr}
 80014d6:	466f      	mov	r7, sp
 80014d8:	b084      	sub	sp, #16
 80014da:	9001      	str	r0, [sp, #4]
 80014dc:	9003      	str	r0, [sp, #12]
 80014de:	7a00      	ldrb	r0, [r0, #8]
 80014e0:	3805      	subs	r0, #5
 80014e2:	fab0 f080 	clz	r0, r0
 80014e6:	0940      	lsrs	r0, r0, #5
 80014e8:	0040      	lsls	r0, r0, #1
 80014ea:	4601      	mov	r1, r0
 80014ec:	9102      	str	r1, [sp, #8]
 80014ee:	b130      	cbz	r0, 80014fe <_ZN4core3ptr218drop_in_place$LT$embassy_futures..join..MaybeDone$LT$embassy_usb..UsbDevice$LT$embassy_stm32..usb_otg..usb..Driver$LT$embassy_stm32.._generated..peripherals..USB_OTG_FS$GT$$GT$..run..$u7b$$u7b$closure$u7d$$u7d$$GT$$GT$17h351b5d23affa712dE+0x2a>
 80014f0:	e7ff      	b.n	80014f2 <_ZN4core3ptr218drop_in_place$LT$embassy_futures..join..MaybeDone$LT$embassy_usb..UsbDevice$LT$embassy_stm32..usb_otg..usb..Driver$LT$embassy_stm32.._generated..peripherals..USB_OTG_FS$GT$$GT$..run..$u7b$$u7b$closure$u7d$$u7d$$GT$$GT$17h351b5d23affa712dE+0x1e>
 80014f2:	9802      	ldr	r0, [sp, #8]
 80014f4:	2801      	cmp	r0, #1
 80014f6:	d100      	bne.n	80014fa <_ZN4core3ptr218drop_in_place$LT$embassy_futures..join..MaybeDone$LT$embassy_usb..UsbDevice$LT$embassy_stm32..usb_otg..usb..Driver$LT$embassy_stm32.._generated..peripherals..USB_OTG_FS$GT$$GT$..run..$u7b$$u7b$closure$u7d$$u7d$$GT$$GT$17h351b5d23affa712dE+0x26>
 80014f8:	e7ff      	b.n	80014fa <_ZN4core3ptr218drop_in_place$LT$embassy_futures..join..MaybeDone$LT$embassy_usb..UsbDevice$LT$embassy_stm32..usb_otg..usb..Driver$LT$embassy_stm32.._generated..peripherals..USB_OTG_FS$GT$$GT$..run..$u7b$$u7b$closure$u7d$$u7d$$GT$$GT$17h351b5d23affa712dE+0x26>
 80014fa:	b004      	add	sp, #16
 80014fc:	bd80      	pop	{r7, pc}
 80014fe:	9801      	ldr	r0, [sp, #4]
 8001500:	f7ff fe0f 	bl	8001122 <_ZN4core3ptr178drop_in_place$LT$embassy_usb..UsbDevice$LT$embassy_stm32..usb_otg..usb..Driver$LT$embassy_stm32.._generated..peripherals..USB_OTG_FS$GT$$GT$..run..$u7b$$u7b$closure$u7d$$u7d$$GT$17heacf9c537457cefaE>
 8001504:	e7f9      	b.n	80014fa <_ZN4core3ptr218drop_in_place$LT$embassy_futures..join..MaybeDone$LT$embassy_usb..UsbDevice$LT$embassy_stm32..usb_otg..usb..Driver$LT$embassy_stm32.._generated..peripherals..USB_OTG_FS$GT$$GT$..run..$u7b$$u7b$closure$u7d$$u7d$$GT$$GT$17h351b5d23affa712dE+0x26>

08001506 <_ZN4core3ptr219drop_in_place$LT$$LT$embassy_stm32..usb_otg..usb..ControlPipe$LT$embassy_stm32.._generated..peripherals..USB_OTG_FS$GT$$u20$as$u20$embassy_usb_driver..ControlPipe$GT$..accept_set_address..$u7b$$u7b$closure$u7d$$u7d$$GT$17h2836cf305b389144E>:
 8001506:	b580      	push	{r7, lr}
 8001508:	466f      	mov	r7, sp
 800150a:	b0ba      	sub	sp, #232	; 0xe8
 800150c:	9000      	str	r0, [sp, #0]
 800150e:	9038      	str	r0, [sp, #224]	; 0xe0
 8001510:	f890 004e 	ldrb.w	r0, [r0, #78]	; 0x4e
 8001514:	4601      	mov	r1, r0
 8001516:	9101      	str	r1, [sp, #4]
 8001518:	b130      	cbz	r0, 8001528 <_ZN4core3ptr219drop_in_place$LT$$LT$embassy_stm32..usb_otg..usb..ControlPipe$LT$embassy_stm32.._generated..peripherals..USB_OTG_FS$GT$$u20$as$u20$embassy_usb_driver..ControlPipe$GT$..accept_set_address..$u7b$$u7b$closure$u7d$$u7d$$GT$17h2836cf305b389144E+0x22>
 800151a:	e7ff      	b.n	800151c <_ZN4core3ptr219drop_in_place$LT$$LT$embassy_stm32..usb_otg..usb..ControlPipe$LT$embassy_stm32.._generated..peripherals..USB_OTG_FS$GT$$u20$as$u20$embassy_usb_driver..ControlPipe$GT$..accept_set_address..$u7b$$u7b$closure$u7d$$u7d$$GT$17h2836cf305b389144E+0x16>
 800151c:	9801      	ldr	r0, [sp, #4]
 800151e:	2803      	cmp	r0, #3
 8001520:	d004      	beq.n	800152c <_ZN4core3ptr219drop_in_place$LT$$LT$embassy_stm32..usb_otg..usb..ControlPipe$LT$embassy_stm32.._generated..peripherals..USB_OTG_FS$GT$$u20$as$u20$embassy_usb_driver..ControlPipe$GT$..accept_set_address..$u7b$$u7b$closure$u7d$$u7d$$GT$17h2836cf305b389144E+0x26>
 8001522:	e7ff      	b.n	8001524 <_ZN4core3ptr219drop_in_place$LT$$LT$embassy_stm32..usb_otg..usb..ControlPipe$LT$embassy_stm32.._generated..peripherals..USB_OTG_FS$GT$$u20$as$u20$embassy_usb_driver..ControlPipe$GT$..accept_set_address..$u7b$$u7b$closure$u7d$$u7d$$GT$17h2836cf305b389144E+0x1e>
 8001524:	b03a      	add	sp, #232	; 0xe8
 8001526:	bd80      	pop	{r7, pc}
 8001528:	b03a      	add	sp, #232	; 0xe8
 800152a:	bd80      	pop	{r7, pc}
 800152c:	9800      	ldr	r0, [sp, #0]
 800152e:	f7ff ff5d 	bl	80013ec <_ZN4core3ptr207drop_in_place$LT$$LT$embassy_stm32..usb_otg..usb..ControlPipe$LT$embassy_stm32.._generated..peripherals..USB_OTG_FS$GT$$u20$as$u20$embassy_usb_driver..ControlPipe$GT$..accept..$u7b$$u7b$closure$u7d$$u7d$$GT$17h2926edfff8873e36E>
 8001532:	b03a      	add	sp, #232	; 0xe8
 8001534:	bd80      	pop	{r7, pc}

08001536 <_ZN4core3ptr236drop_in_place$LT$$LT$embassy_stm32..usb_otg..usb..Endpoint$LT$embassy_stm32.._generated..peripherals..USB_OTG_FS$C$embassy_stm32..usb_otg..usb..In$GT$$u20$as$u20$embassy_usb_driver..EndpointIn$GT$..write..$u7b$$u7b$closure$u7d$$u7d$$GT$17hd9a8bf4522609915E>:
 8001536:	b0b6      	sub	sp, #216	; 0xd8
 8001538:	9034      	str	r0, [sp, #208]	; 0xd0
 800153a:	f890 0024 	ldrb.w	r0, [r0, #36]	; 0x24
 800153e:	4601      	mov	r1, r0
 8001540:	9100      	str	r1, [sp, #0]
 8001542:	b150      	cbz	r0, 800155a <_ZN4core3ptr236drop_in_place$LT$$LT$embassy_stm32..usb_otg..usb..Endpoint$LT$embassy_stm32.._generated..peripherals..USB_OTG_FS$C$embassy_stm32..usb_otg..usb..In$GT$$u20$as$u20$embassy_usb_driver..EndpointIn$GT$..write..$u7b$$u7b$closure$u7d$$u7d$$GT$17hd9a8bf4522609915E+0x24>
 8001544:	e7ff      	b.n	8001546 <_ZN4core3ptr236drop_in_place$LT$$LT$embassy_stm32..usb_otg..usb..Endpoint$LT$embassy_stm32.._generated..peripherals..USB_OTG_FS$C$embassy_stm32..usb_otg..usb..In$GT$$u20$as$u20$embassy_usb_driver..EndpointIn$GT$..write..$u7b$$u7b$closure$u7d$$u7d$$GT$17hd9a8bf4522609915E+0x10>
 8001546:	9800      	ldr	r0, [sp, #0]
 8001548:	2803      	cmp	r0, #3
 800154a:	d008      	beq.n	800155e <_ZN4core3ptr236drop_in_place$LT$$LT$embassy_stm32..usb_otg..usb..Endpoint$LT$embassy_stm32.._generated..peripherals..USB_OTG_FS$C$embassy_stm32..usb_otg..usb..In$GT$$u20$as$u20$embassy_usb_driver..EndpointIn$GT$..write..$u7b$$u7b$closure$u7d$$u7d$$GT$17hd9a8bf4522609915E+0x28>
 800154c:	e7ff      	b.n	800154e <_ZN4core3ptr236drop_in_place$LT$$LT$embassy_stm32..usb_otg..usb..Endpoint$LT$embassy_stm32.._generated..peripherals..USB_OTG_FS$C$embassy_stm32..usb_otg..usb..In$GT$$u20$as$u20$embassy_usb_driver..EndpointIn$GT$..write..$u7b$$u7b$closure$u7d$$u7d$$GT$17hd9a8bf4522609915E+0x18>
 800154e:	9800      	ldr	r0, [sp, #0]
 8001550:	2804      	cmp	r0, #4
 8001552:	d005      	beq.n	8001560 <_ZN4core3ptr236drop_in_place$LT$$LT$embassy_stm32..usb_otg..usb..Endpoint$LT$embassy_stm32.._generated..peripherals..USB_OTG_FS$C$embassy_stm32..usb_otg..usb..In$GT$$u20$as$u20$embassy_usb_driver..EndpointIn$GT$..write..$u7b$$u7b$closure$u7d$$u7d$$GT$17hd9a8bf4522609915E+0x2a>
 8001554:	e7ff      	b.n	8001556 <_ZN4core3ptr236drop_in_place$LT$$LT$embassy_stm32..usb_otg..usb..Endpoint$LT$embassy_stm32.._generated..peripherals..USB_OTG_FS$C$embassy_stm32..usb_otg..usb..In$GT$$u20$as$u20$embassy_usb_driver..EndpointIn$GT$..write..$u7b$$u7b$closure$u7d$$u7d$$GT$17hd9a8bf4522609915E+0x20>
 8001556:	b036      	add	sp, #216	; 0xd8
 8001558:	4770      	bx	lr
 800155a:	b036      	add	sp, #216	; 0xd8
 800155c:	4770      	bx	lr
 800155e:	e000      	b.n	8001562 <_ZN4core3ptr236drop_in_place$LT$$LT$embassy_stm32..usb_otg..usb..Endpoint$LT$embassy_stm32.._generated..peripherals..USB_OTG_FS$C$embassy_stm32..usb_otg..usb..In$GT$$u20$as$u20$embassy_usb_driver..EndpointIn$GT$..write..$u7b$$u7b$closure$u7d$$u7d$$GT$17hd9a8bf4522609915E+0x2c>
 8001560:	e7ff      	b.n	8001562 <_ZN4core3ptr236drop_in_place$LT$$LT$embassy_stm32..usb_otg..usb..Endpoint$LT$embassy_stm32.._generated..peripherals..USB_OTG_FS$C$embassy_stm32..usb_otg..usb..In$GT$$u20$as$u20$embassy_usb_driver..EndpointIn$GT$..write..$u7b$$u7b$closure$u7d$$u7d$$GT$17hd9a8bf4522609915E+0x2c>
 8001562:	b036      	add	sp, #216	; 0xd8
 8001564:	4770      	bx	lr

08001566 <_ZN4core3ptr237drop_in_place$LT$$LT$embassy_stm32..usb_otg..usb..Endpoint$LT$embassy_stm32.._generated..peripherals..USB_OTG_FS$C$embassy_stm32..usb_otg..usb..Out$GT$$u20$as$u20$embassy_usb_driver..EndpointOut$GT$..read..$u7b$$u7b$closure$u7d$$u7d$$GT$17h3a164241ce2fa35cE>:
 8001566:	b098      	sub	sp, #96	; 0x60
 8001568:	9017      	str	r0, [sp, #92]	; 0x5c
 800156a:	7f00      	ldrb	r0, [r0, #28]
 800156c:	4601      	mov	r1, r0
 800156e:	9100      	str	r1, [sp, #0]
 8001570:	b130      	cbz	r0, 8001580 <_ZN4core3ptr237drop_in_place$LT$$LT$embassy_stm32..usb_otg..usb..Endpoint$LT$embassy_stm32.._generated..peripherals..USB_OTG_FS$C$embassy_stm32..usb_otg..usb..Out$GT$$u20$as$u20$embassy_usb_driver..EndpointOut$GT$..read..$u7b$$u7b$closure$u7d$$u7d$$GT$17h3a164241ce2fa35cE+0x1a>
 8001572:	e7ff      	b.n	8001574 <_ZN4core3ptr237drop_in_place$LT$$LT$embassy_stm32..usb_otg..usb..Endpoint$LT$embassy_stm32.._generated..peripherals..USB_OTG_FS$C$embassy_stm32..usb_otg..usb..Out$GT$$u20$as$u20$embassy_usb_driver..EndpointOut$GT$..read..$u7b$$u7b$closure$u7d$$u7d$$GT$17h3a164241ce2fa35cE+0xe>
 8001574:	9800      	ldr	r0, [sp, #0]
 8001576:	2803      	cmp	r0, #3
 8001578:	d004      	beq.n	8001584 <_ZN4core3ptr237drop_in_place$LT$$LT$embassy_stm32..usb_otg..usb..Endpoint$LT$embassy_stm32.._generated..peripherals..USB_OTG_FS$C$embassy_stm32..usb_otg..usb..Out$GT$$u20$as$u20$embassy_usb_driver..EndpointOut$GT$..read..$u7b$$u7b$closure$u7d$$u7d$$GT$17h3a164241ce2fa35cE+0x1e>
 800157a:	e7ff      	b.n	800157c <_ZN4core3ptr237drop_in_place$LT$$LT$embassy_stm32..usb_otg..usb..Endpoint$LT$embassy_stm32.._generated..peripherals..USB_OTG_FS$C$embassy_stm32..usb_otg..usb..Out$GT$$u20$as$u20$embassy_usb_driver..EndpointOut$GT$..read..$u7b$$u7b$closure$u7d$$u7d$$GT$17h3a164241ce2fa35cE+0x16>
 800157c:	b018      	add	sp, #96	; 0x60
 800157e:	4770      	bx	lr
 8001580:	b018      	add	sp, #96	; 0x60
 8001582:	4770      	bx	lr
 8001584:	b018      	add	sp, #96	; 0x60
 8001586:	4770      	bx	lr

08001588 <_ZN4core3ptr242drop_in_place$LT$$LT$embassy_stm32..usb_otg..usb..Endpoint$LT$embassy_stm32.._generated..peripherals..USB_OTG_FS$C$embassy_stm32..usb_otg..usb..Out$GT$$u20$as$u20$embassy_usb_driver..Endpoint$GT$..wait_enabled..$u7b$$u7b$closure$u7d$$u7d$$GT$17h3e18397ba1dca614E>:
 8001588:	b083      	sub	sp, #12
 800158a:	9001      	str	r0, [sp, #4]
 800158c:	7a00      	ldrb	r0, [r0, #8]
 800158e:	4601      	mov	r1, r0
 8001590:	9100      	str	r1, [sp, #0]
 8001592:	b130      	cbz	r0, 80015a2 <_ZN4core3ptr242drop_in_place$LT$$LT$embassy_stm32..usb_otg..usb..Endpoint$LT$embassy_stm32.._generated..peripherals..USB_OTG_FS$C$embassy_stm32..usb_otg..usb..Out$GT$$u20$as$u20$embassy_usb_driver..Endpoint$GT$..wait_enabled..$u7b$$u7b$closure$u7d$$u7d$$GT$17h3e18397ba1dca614E+0x1a>
 8001594:	e7ff      	b.n	8001596 <_ZN4core3ptr242drop_in_place$LT$$LT$embassy_stm32..usb_otg..usb..Endpoint$LT$embassy_stm32.._generated..peripherals..USB_OTG_FS$C$embassy_stm32..usb_otg..usb..Out$GT$$u20$as$u20$embassy_usb_driver..Endpoint$GT$..wait_enabled..$u7b$$u7b$closure$u7d$$u7d$$GT$17h3e18397ba1dca614E+0xe>
 8001596:	9800      	ldr	r0, [sp, #0]
 8001598:	2803      	cmp	r0, #3
 800159a:	d004      	beq.n	80015a6 <_ZN4core3ptr242drop_in_place$LT$$LT$embassy_stm32..usb_otg..usb..Endpoint$LT$embassy_stm32.._generated..peripherals..USB_OTG_FS$C$embassy_stm32..usb_otg..usb..Out$GT$$u20$as$u20$embassy_usb_driver..Endpoint$GT$..wait_enabled..$u7b$$u7b$closure$u7d$$u7d$$GT$17h3e18397ba1dca614E+0x1e>
 800159c:	e7ff      	b.n	800159e <_ZN4core3ptr242drop_in_place$LT$$LT$embassy_stm32..usb_otg..usb..Endpoint$LT$embassy_stm32.._generated..peripherals..USB_OTG_FS$C$embassy_stm32..usb_otg..usb..Out$GT$$u20$as$u20$embassy_usb_driver..Endpoint$GT$..wait_enabled..$u7b$$u7b$closure$u7d$$u7d$$GT$17h3e18397ba1dca614E+0x16>
 800159e:	b003      	add	sp, #12
 80015a0:	4770      	bx	lr
 80015a2:	b003      	add	sp, #12
 80015a4:	4770      	bx	lr
 80015a6:	b003      	add	sp, #12
 80015a8:	4770      	bx	lr

080015aa <_ZN4core3ptr303drop_in_place$LT$embassy_futures..join..Join$LT$embassy_usb..UsbDevice$LT$embassy_stm32..usb_otg..usb..Driver$LT$embassy_stm32.._generated..peripherals..USB_OTG_FS$GT$$GT$..run..$u7b$$u7b$closure$u7d$$u7d$$C$client..____embassy_main_task..$u7b$$u7b$closure$u7d$$u7d$..$u7b$$u7b$closure$u7d$$u7d$$GT$$GT$17h640e9ec524b61006E>:
 80015aa:	b580      	push	{r7, lr}
 80015ac:	466f      	mov	r7, sp
 80015ae:	b082      	sub	sp, #8
 80015b0:	9000      	str	r0, [sp, #0]
 80015b2:	9001      	str	r0, [sp, #4]
 80015b4:	f7ff ff8e 	bl	80014d4 <_ZN4core3ptr218drop_in_place$LT$embassy_futures..join..MaybeDone$LT$embassy_usb..UsbDevice$LT$embassy_stm32..usb_otg..usb..Driver$LT$embassy_stm32.._generated..peripherals..USB_OTG_FS$GT$$GT$..run..$u7b$$u7b$closure$u7d$$u7d$$GT$$GT$17h351b5d23affa712dE>
 80015b8:	9800      	ldr	r0, [sp, #0]
 80015ba:	30d0      	adds	r0, #208	; 0xd0
 80015bc:	f7ff fd8c 	bl	80010d8 <_ZN4core3ptr148drop_in_place$LT$embassy_futures..join..MaybeDone$LT$client..____embassy_main_task..$u7b$$u7b$closure$u7d$$u7d$..$u7b$$u7b$closure$u7d$$u7d$$GT$$GT$17h2c941d84f2fcae7aE>
 80015c0:	b002      	add	sp, #8
 80015c2:	bd80      	pop	{r7, pc}

080015c4 <_ZN4core3ptr416drop_in_place$LT$embassy_futures..select..Select$LT$$LT$embassy_stm32..usb_otg..usb..Bus$LT$embassy_stm32.._generated..peripherals..USB_OTG_FS$GT$$u20$as$u20$embassy_usb_driver..Bus$GT$..poll..$u7b$$u7b$closure$u7d$$u7d$$C$$LT$embassy_stm32..usb_otg..usb..ControlPipe$LT$embassy_stm32.._generated..peripherals..USB_OTG_FS$GT$$u20$as$u20$embassy_usb_driver..ControlPipe$GT$..setup..$u7b$$u7b$closure$u7d$$u7d$$GT$$GT$17hcdcb26a46db0f236E>:
 80015c4:	b580      	push	{r7, lr}
 80015c6:	466f      	mov	r7, sp
 80015c8:	b082      	sub	sp, #8
 80015ca:	9000      	str	r0, [sp, #0]
 80015cc:	9001      	str	r0, [sp, #4]
 80015ce:	f7ff fe12 	bl	80011f6 <_ZN4core3ptr189drop_in_place$LT$$LT$embassy_stm32..usb_otg..usb..Bus$LT$embassy_stm32.._generated..peripherals..USB_OTG_FS$GT$$u20$as$u20$embassy_usb_driver..Bus$GT$..poll..$u7b$$u7b$closure$u7d$$u7d$$GT$17hd622701e6f37faf6E>
 80015d2:	9800      	ldr	r0, [sp, #0]
 80015d4:	300c      	adds	r0, #12
 80015d6:	f7ff fef8 	bl	80013ca <_ZN4core3ptr206drop_in_place$LT$$LT$embassy_stm32..usb_otg..usb..ControlPipe$LT$embassy_stm32.._generated..peripherals..USB_OTG_FS$GT$$u20$as$u20$embassy_usb_driver..ControlPipe$GT$..setup..$u7b$$u7b$closure$u7d$$u7d$$GT$17h4263504789b32868E>
 80015da:	b002      	add	sp, #8
 80015dc:	bd80      	pop	{r7, pc}

080015de <_ZN4core3ptr55drop_in_place$LT$embassy_usb..class..cdc_acm..State$GT$17h1d10c413b3dbae89E>:
 80015de:	b580      	push	{r7, lr}
 80015e0:	466f      	mov	r7, sp
 80015e2:	b082      	sub	sp, #8
 80015e4:	9001      	str	r0, [sp, #4]
 80015e6:	3008      	adds	r0, #8
 80015e8:	f000 f802 	bl	80015f0 <_ZN4core3ptr63drop_in_place$LT$embassy_usb..class..cdc_acm..ControlShared$GT$17h9df32a9b95ed6761E>
 80015ec:	b002      	add	sp, #8
 80015ee:	bd80      	pop	{r7, pc}

080015f0 <_ZN4core3ptr63drop_in_place$LT$embassy_usb..class..cdc_acm..ControlShared$GT$17h9df32a9b95ed6761E>:
 80015f0:	b580      	push	{r7, lr}
 80015f2:	466f      	mov	r7, sp
 80015f4:	b082      	sub	sp, #8
 80015f6:	9001      	str	r0, [sp, #4]
 80015f8:	3008      	adds	r0, #8
 80015fa:	f7ff fd20 	bl	800103e <_ZN4core3ptr110drop_in_place$LT$core..cell..RefCell$LT$embassy_sync..waitqueue..waker_registration..WakerRegistration$GT$$GT$17hc5a366f6aaf723fbE>
 80015fe:	b002      	add	sp, #8
 8001600:	bd80      	pop	{r7, pc}

08001602 <_ZN4core3ptr69drop_in_place$LT$client..blinky_task..$u7b$$u7b$closure$u7d$$u7d$$GT$17hbc4c74940515757fE>:
 8001602:	b580      	push	{r7, lr}
 8001604:	466f      	mov	r7, sp
 8001606:	b082      	sub	sp, #8
 8001608:	9001      	str	r0, [sp, #4]
 800160a:	f7ff fcee 	bl	8000fea <_ZN4core3ptr100drop_in_place$LT$embassy_stm32..gpio..Output$LT$embassy_stm32.._generated..peripherals..PC13$GT$$GT$17h6730189554764f7bE>
 800160e:	b002      	add	sp, #8
 8001610:	bd80      	pop	{r7, pc}

08001612 <_ZN4core3ptr76drop_in_place$LT$client..__blinky_task_task..$u7b$$u7b$closure$u7d$$u7d$$GT$17h9843e6905eb2f565E>:
 8001612:	b580      	push	{r7, lr}
 8001614:	466f      	mov	r7, sp
 8001616:	b084      	sub	sp, #16
 8001618:	9000      	str	r0, [sp, #0]
 800161a:	9002      	str	r0, [sp, #8]
 800161c:	7800      	ldrb	r0, [r0, #0]
 800161e:	4601      	mov	r1, r0
 8001620:	9101      	str	r1, [sp, #4]
 8001622:	b150      	cbz	r0, 800163a <_ZN4core3ptr76drop_in_place$LT$client..__blinky_task_task..$u7b$$u7b$closure$u7d$$u7d$$GT$17h9843e6905eb2f565E+0x28>
 8001624:	e7ff      	b.n	8001626 <_ZN4core3ptr76drop_in_place$LT$client..__blinky_task_task..$u7b$$u7b$closure$u7d$$u7d$$GT$17h9843e6905eb2f565E+0x14>
 8001626:	9801      	ldr	r0, [sp, #4]
 8001628:	2803      	cmp	r0, #3
 800162a:	d00c      	beq.n	8001646 <_ZN4core3ptr76drop_in_place$LT$client..__blinky_task_task..$u7b$$u7b$closure$u7d$$u7d$$GT$17h9843e6905eb2f565E+0x34>
 800162c:	e7ff      	b.n	800162e <_ZN4core3ptr76drop_in_place$LT$client..__blinky_task_task..$u7b$$u7b$closure$u7d$$u7d$$GT$17h9843e6905eb2f565E+0x1c>
 800162e:	9801      	ldr	r0, [sp, #4]
 8001630:	2804      	cmp	r0, #4
 8001632:	d009      	beq.n	8001648 <_ZN4core3ptr76drop_in_place$LT$client..__blinky_task_task..$u7b$$u7b$closure$u7d$$u7d$$GT$17h9843e6905eb2f565E+0x36>
 8001634:	e7ff      	b.n	8001636 <_ZN4core3ptr76drop_in_place$LT$client..__blinky_task_task..$u7b$$u7b$closure$u7d$$u7d$$GT$17h9843e6905eb2f565E+0x24>
 8001636:	b004      	add	sp, #16
 8001638:	bd80      	pop	{r7, pc}
 800163a:	9800      	ldr	r0, [sp, #0]
 800163c:	3001      	adds	r0, #1
 800163e:	f7ff fcd4 	bl	8000fea <_ZN4core3ptr100drop_in_place$LT$embassy_stm32..gpio..Output$LT$embassy_stm32.._generated..peripherals..PC13$GT$$GT$17h6730189554764f7bE>
 8001642:	b004      	add	sp, #16
 8001644:	bd80      	pop	{r7, pc}
 8001646:	e000      	b.n	800164a <_ZN4core3ptr76drop_in_place$LT$client..__blinky_task_task..$u7b$$u7b$closure$u7d$$u7d$$GT$17h9843e6905eb2f565E+0x38>
 8001648:	e7ff      	b.n	800164a <_ZN4core3ptr76drop_in_place$LT$client..__blinky_task_task..$u7b$$u7b$closure$u7d$$u7d$$GT$17h9843e6905eb2f565E+0x38>
 800164a:	9800      	ldr	r0, [sp, #0]
 800164c:	3001      	adds	r0, #1
 800164e:	f7ff fccc 	bl	8000fea <_ZN4core3ptr100drop_in_place$LT$embassy_stm32..gpio..Output$LT$embassy_stm32.._generated..peripherals..PC13$GT$$GT$17h6730189554764f7bE>
 8001652:	b004      	add	sp, #16
 8001654:	bd80      	pop	{r7, pc}

08001656 <_ZN4core3ptr79drop_in_place$LT$client..____embassy_main_task..$u7b$$u7b$closure$u7d$$u7d$$GT$17hdc4c57caedc528d3E>:
 8001656:	b5b0      	push	{r4, r5, r7, lr}
 8001658:	af02      	add	r7, sp, #8
 800165a:	f5ad 5de6 	sub.w	sp, sp, #7360	; 0x1cc0
 800165e:	b084      	sub	sp, #16
 8001660:	9000      	str	r0, [sp, #0]
 8001662:	f847 0c10 	str.w	r0, [r7, #-16]
 8001666:	f890 0bb8 	ldrb.w	r0, [r0, #3000]	; 0xbb8
 800166a:	4601      	mov	r1, r0
 800166c:	9101      	str	r1, [sp, #4]
 800166e:	b140      	cbz	r0, 8001682 <_ZN4core3ptr79drop_in_place$LT$client..____embassy_main_task..$u7b$$u7b$closure$u7d$$u7d$$GT$17hdc4c57caedc528d3E+0x2c>
 8001670:	e7ff      	b.n	8001672 <_ZN4core3ptr79drop_in_place$LT$client..____embassy_main_task..$u7b$$u7b$closure$u7d$$u7d$$GT$17hdc4c57caedc528d3E+0x1c>
 8001672:	9801      	ldr	r0, [sp, #4]
 8001674:	2803      	cmp	r0, #3
 8001676:	d008      	beq.n	800168a <_ZN4core3ptr79drop_in_place$LT$client..____embassy_main_task..$u7b$$u7b$closure$u7d$$u7d$$GT$17hdc4c57caedc528d3E+0x34>
 8001678:	e7ff      	b.n	800167a <_ZN4core3ptr79drop_in_place$LT$client..____embassy_main_task..$u7b$$u7b$closure$u7d$$u7d$$GT$17hdc4c57caedc528d3E+0x24>
 800167a:	f50d 5de6 	add.w	sp, sp, #7360	; 0x1cc0
 800167e:	b004      	add	sp, #16
 8001680:	bdb0      	pop	{r4, r5, r7, pc}
 8001682:	f50d 5de6 	add.w	sp, sp, #7360	; 0x1cc0
 8001686:	b004      	add	sp, #16
 8001688:	bdb0      	pop	{r4, r5, r7, pc}
 800168a:	9800      	ldr	r0, [sp, #0]
 800168c:	f600 207c 	addw	r0, r0, #2684	; 0xa7c
 8001690:	f7ff ff8b 	bl	80015aa <_ZN4core3ptr303drop_in_place$LT$embassy_futures..join..Join$LT$embassy_usb..UsbDevice$LT$embassy_stm32..usb_otg..usb..Driver$LT$embassy_stm32.._generated..peripherals..USB_OTG_FS$GT$$GT$..run..$u7b$$u7b$closure$u7d$$u7d$$C$client..____embassy_main_task..$u7b$$u7b$closure$u7d$$u7d$..$u7b$$u7b$closure$u7d$$u7d$$GT$$GT$17h640e9ec524b61006E>
 8001694:	9800      	ldr	r0, [sp, #0]
 8001696:	f500 6015 	add.w	r0, r0, #2384	; 0x950
 800169a:	f7ff fd14 	bl	80010c6 <_ZN4core3ptr144drop_in_place$LT$embassy_usb..UsbDevice$LT$embassy_stm32..usb_otg..usb..Driver$LT$embassy_stm32.._generated..peripherals..USB_OTG_FS$GT$$GT$$GT$17h09565fe08511bc62E>
 800169e:	9800      	ldr	r0, [sp, #0]
 80016a0:	f500 6013 	add.w	r0, r0, #2352	; 0x930
 80016a4:	f7ff ff9b 	bl	80015de <_ZN4core3ptr55drop_in_place$LT$embassy_usb..class..cdc_acm..State$GT$17h1d10c413b3dbae89E>
 80016a8:	f50d 5de6 	add.w	sp, sp, #7360	; 0x1cc0
 80016ac:	b004      	add	sp, #16
 80016ae:	bdb0      	pop	{r4, r5, r7, pc}

080016b0 <_ZN4core3ptr79drop_in_place$LT$heapless..vec..Vec$LT$embassy_usb..Interface$C$4_usize$GT$$GT$17h04a43753480b8085E>:
 80016b0:	b580      	push	{r7, lr}
 80016b2:	466f      	mov	r7, sp
 80016b4:	b082      	sub	sp, #8
 80016b6:	9001      	str	r0, [sp, #4]
 80016b8:	f000 f812 	bl	80016e0 <_ZN73_$LT$heapless..vec..Vec$LT$T$C$_$GT$$u20$as$u20$core..ops..drop..Drop$GT$4drop17hc70c7d4845720e2bE>
 80016bc:	b002      	add	sp, #8
 80016be:	bd80      	pop	{r7, pc}

080016c0 <_ZN4core3ptr97drop_in_place$LT$heapless..vec..Vec$LT$$RF$mut$u20$dyn$u20$embassy_usb..Handler$C$4_usize$GT$$GT$17ha3002a89769fee5dE>:
 80016c0:	b580      	push	{r7, lr}
 80016c2:	466f      	mov	r7, sp
 80016c4:	b082      	sub	sp, #8
 80016c6:	9001      	str	r0, [sp, #4]
 80016c8:	f000 f812 	bl	80016f0 <_ZN73_$LT$heapless..vec..Vec$LT$T$C$_$GT$$u20$as$u20$core..ops..drop..Drop$GT$4drop17hf69b39a0eaa7182fE>
 80016cc:	b002      	add	sp, #8
 80016ce:	bd80      	pop	{r7, pc}

080016d0 <_ZN4core3ptr98drop_in_place$LT$embassy_stm32..gpio..Flex$LT$embassy_stm32.._generated..peripherals..PC13$GT$$GT$17h939f6fde625c1f18E>:
 80016d0:	b580      	push	{r7, lr}
 80016d2:	466f      	mov	r7, sp
 80016d4:	b082      	sub	sp, #8
 80016d6:	9001      	str	r0, [sp, #4]
 80016d8:	f000 f812 	bl	8001700 <_ZN76_$LT$embassy_stm32..gpio..Flex$LT$T$GT$$u20$as$u20$core..ops..drop..Drop$GT$4drop17ha0a25403d175e028E>
 80016dc:	b002      	add	sp, #8
 80016de:	bd80      	pop	{r7, pc}

080016e0 <_ZN73_$LT$heapless..vec..Vec$LT$T$C$_$GT$$u20$as$u20$core..ops..drop..Drop$GT$4drop17hc70c7d4845720e2bE>:
 80016e0:	b580      	push	{r7, lr}
 80016e2:	466f      	mov	r7, sp
 80016e4:	b082      	sub	sp, #8
 80016e6:	9001      	str	r0, [sp, #4]
 80016e8:	f00d fb1d 	bl	800ed26 <_ZN8heapless3vec16Vec$LT$T$C$_$GT$12as_mut_slice17h06eb0cd599ed1648E>
 80016ec:	b002      	add	sp, #8
 80016ee:	bd80      	pop	{r7, pc}

080016f0 <_ZN73_$LT$heapless..vec..Vec$LT$T$C$_$GT$$u20$as$u20$core..ops..drop..Drop$GT$4drop17hf69b39a0eaa7182fE>:
 80016f0:	b580      	push	{r7, lr}
 80016f2:	466f      	mov	r7, sp
 80016f4:	b082      	sub	sp, #8
 80016f6:	9001      	str	r0, [sp, #4]
 80016f8:	f00d fb21 	bl	800ed3e <_ZN8heapless3vec16Vec$LT$T$C$_$GT$12as_mut_slice17h993a3d12929fa7ecE>
 80016fc:	b002      	add	sp, #8
 80016fe:	bd80      	pop	{r7, pc}

08001700 <_ZN76_$LT$embassy_stm32..gpio..Flex$LT$T$GT$$u20$as$u20$core..ops..drop..Drop$GT$4drop17ha0a25403d175e028E>:
 8001700:	b580      	push	{r7, lr}
 8001702:	466f      	mov	r7, sp
 8001704:	b082      	sub	sp, #8
 8001706:	9001      	str	r0, [sp, #4]
 8001708:	f7fe ff05 	bl	8000516 <_ZN16critical_section4with17hcf7faeed311457b7E>
 800170c:	b002      	add	sp, #8
 800170e:	bd80      	pop	{r7, pc}

08001710 <_ZN83_$LT$embassy_stm32..usb_otg..usb..Bus$LT$T$GT$$u20$as$u20$core..ops..drop..Drop$GT$4drop17h0ffb45c03fa156afE>:
 8001710:	b580      	push	{r7, lr}
 8001712:	466f      	mov	r7, sp
 8001714:	b082      	sub	sp, #8
 8001716:	9001      	str	r0, [sp, #4]
 8001718:	f002 fedc 	bl	80044d4 <_ZN13embassy_stm327usb_otg3usb12Bus$LT$T$GT$7disable17h274d712c759abef9E>
 800171c:	b002      	add	sp, #8
 800171e:	bd80      	pop	{r7, pc}

08001720 <_ZN88_$LT$embassy_usb..builder..FunctionBuilder$LT$D$GT$$u20$as$u20$core..ops..drop..Drop$GT$4drop17hfa6f877ac1bf2832E>:
 8001720:	b580      	push	{r7, lr}
 8001722:	466f      	mov	r7, sp
 8001724:	b082      	sub	sp, #8
 8001726:	9001      	str	r0, [sp, #4]
 8001728:	6880      	ldr	r0, [r0, #8]
 800172a:	3040      	adds	r0, #64	; 0x40
 800172c:	f014 f955 	bl	80159da <_ZN11embassy_usb4msos20MsOsDescriptorWriter12end_function17h19016f5da5dfd9f1E>
 8001730:	b002      	add	sp, #8
 8001732:	bd80      	pop	{r7, pc}

08001734 <_ZN101_$LT$embassy_stm32..usb_otg..usb..ControlPipe$LT$T$GT$$u20$as$u20$embassy_usb_driver..ControlPipe$GT$15max_packet_size17h5deb53c05af6264eE>:
 8001734:	b082      	sub	sp, #8
 8001736:	9000      	str	r0, [sp, #0]
 8001738:	8800      	ldrh	r0, [r0, #0]
 800173a:	f8ad 0006 	strh.w	r0, [sp, #6]
 800173e:	b002      	add	sp, #8
 8001740:	4770      	bx	lr

08001742 <_ZN101_$LT$embassy_stm32..usb_otg..usb..ControlPipe$LT$T$GT$$u20$as$u20$embassy_usb_driver..ControlPipe$GT$18accept_set_address17hd47b2064f85acad5E>:
 8001742:	b083      	sub	sp, #12
 8001744:	9100      	str	r1, [sp, #0]
 8001746:	4601      	mov	r1, r0
 8001748:	9800      	ldr	r0, [sp, #0]
 800174a:	9001      	str	r0, [sp, #4]
 800174c:	f88d 200b 	strb.w	r2, [sp, #11]
 8001750:	6488      	str	r0, [r1, #72]	; 0x48
 8001752:	f881 204c 	strb.w	r2, [r1, #76]	; 0x4c
 8001756:	2000      	movs	r0, #0
 8001758:	f881 004e 	strb.w	r0, [r1, #78]	; 0x4e
 800175c:	b003      	add	sp, #12
 800175e:	4770      	bx	lr

08001760 <_ZN101_$LT$embassy_stm32..usb_otg..usb..ControlPipe$LT$T$GT$$u20$as$u20$embassy_usb_driver..ControlPipe$GT$18accept_set_address28_$u7b$$u7b$closure$u7d$$u7d$17h82aa38eeec7d2a02E>:
 8001760:	b580      	push	{r7, lr}
 8001762:	466f      	mov	r7, sp
 8001764:	b0b4      	sub	sp, #208	; 0xd0
 8001766:	9105      	str	r1, [sp, #20]
 8001768:	9007      	str	r0, [sp, #28]
 800176a:	912f      	str	r1, [sp, #188]	; 0xbc
 800176c:	9807      	ldr	r0, [sp, #28]
 800176e:	f890 004e 	ldrb.w	r0, [r0, #78]	; 0x4e
 8001772:	4601      	mov	r1, r0
 8001774:	9106      	str	r1, [sp, #24]
 8001776:	b130      	cbz	r0, 8001786 <_ZN101_$LT$embassy_stm32..usb_otg..usb..ControlPipe$LT$T$GT$$u20$as$u20$embassy_usb_driver..ControlPipe$GT$18accept_set_address28_$u7b$$u7b$closure$u7d$$u7d$17h82aa38eeec7d2a02E+0x26>
 8001778:	e7ff      	b.n	800177a <_ZN101_$LT$embassy_stm32..usb_otg..usb..ControlPipe$LT$T$GT$$u20$as$u20$embassy_usb_driver..ControlPipe$GT$18accept_set_address28_$u7b$$u7b$closure$u7d$$u7d$17h82aa38eeec7d2a02E+0x1a>
 800177a:	9806      	ldr	r0, [sp, #24]
 800177c:	2801      	cmp	r0, #1
 800177e:	d013      	beq.n	80017a8 <_ZN101_$LT$embassy_stm32..usb_otg..usb..ControlPipe$LT$T$GT$$u20$as$u20$embassy_usb_driver..ControlPipe$GT$18accept_set_address28_$u7b$$u7b$closure$u7d$$u7d$17h82aa38eeec7d2a02E+0x48>
 8001780:	e7ff      	b.n	8001782 <_ZN101_$LT$embassy_stm32..usb_otg..usb..ControlPipe$LT$T$GT$$u20$as$u20$embassy_usb_driver..ControlPipe$GT$18accept_set_address28_$u7b$$u7b$closure$u7d$$u7d$17h82aa38eeec7d2a02E+0x22>
 8001782:	e015      	b.n	80017b0 <_ZN101_$LT$embassy_stm32..usb_otg..usb..ControlPipe$LT$T$GT$$u20$as$u20$embassy_usb_driver..ControlPipe$GT$18accept_set_address28_$u7b$$u7b$closure$u7d$$u7d$17h82aa38eeec7d2a02E+0x50>
 8001784:	defe      	udf	#254	; 0xfe
 8001786:	9805      	ldr	r0, [sp, #20]
 8001788:	902e      	str	r0, [sp, #184]	; 0xb8
 800178a:	9807      	ldr	r0, [sp, #28]
 800178c:	6c80      	ldr	r0, [r0, #72]	; 0x48
 800178e:	9003      	str	r0, [sp, #12]
 8001790:	9031      	str	r0, [sp, #196]	; 0xc4
 8001792:	9907      	ldr	r1, [sp, #28]
 8001794:	f891 004c 	ldrb.w	r0, [r1, #76]	; 0x4c
 8001798:	f881 004d 	strb.w	r0, [r1, #77]	; 0x4d
 800179c:	9807      	ldr	r0, [sp, #28]
 800179e:	304d      	adds	r0, #77	; 0x4d
 80017a0:	4601      	mov	r1, r0
 80017a2:	9104      	str	r1, [sp, #16]
 80017a4:	9032      	str	r0, [sp, #200]	; 0xc8
 80017a6:	e006      	b.n	80017b6 <_ZN101_$LT$embassy_stm32..usb_otg..usb..ControlPipe$LT$T$GT$$u20$as$u20$embassy_usb_driver..ControlPipe$GT$18accept_set_address28_$u7b$$u7b$closure$u7d$$u7d$17h82aa38eeec7d2a02E+0x56>
 80017a8:	2000      	movs	r0, #0
 80017aa:	2800      	cmp	r0, #0
 80017ac:	d1fc      	bne.n	80017a8 <_ZN101_$LT$embassy_stm32..usb_otg..usb..ControlPipe$LT$T$GT$$u20$as$u20$embassy_usb_driver..ControlPipe$GT$18accept_set_address28_$u7b$$u7b$closure$u7d$$u7d$17h82aa38eeec7d2a02E+0x48>
 80017ae:	e036      	b.n	800181e <_ZN101_$LT$embassy_stm32..usb_otg..usb..ControlPipe$LT$T$GT$$u20$as$u20$embassy_usb_driver..ControlPipe$GT$18accept_set_address28_$u7b$$u7b$closure$u7d$$u7d$17h82aa38eeec7d2a02E+0xbe>
 80017b0:	9805      	ldr	r0, [sp, #20]
 80017b2:	902e      	str	r0, [sp, #184]	; 0xb8
 80017b4:	e027      	b.n	8001806 <_ZN101_$LT$embassy_stm32..usb_otg..usb..ControlPipe$LT$T$GT$$u20$as$u20$embassy_usb_driver..ControlPipe$GT$18accept_set_address28_$u7b$$u7b$closure$u7d$$u7d$17h82aa38eeec7d2a02E+0xa6>
 80017b6:	f012 fc94 	bl	80140e2 <_defmt_acquire>
 80017ba:	f240 00a0 	movw	r0, #160	; 0xa0
 80017be:	f2c0 0000 	movt	r0, #0
 80017c2:	f022 f913 	bl	80239ec <_ZN5defmt6export9make_istr17hc00a4ef463faf312E>
 80017c6:	f827 0cae 	strh.w	r0, [r7, #-174]
 80017ca:	f1a7 00ae 	sub.w	r0, r7, #174	; 0xae
 80017ce:	f022 f979 	bl	8023ac4 <_ZN5defmt6export6header17hc8d48e1d45da2002E>
 80017d2:	9804      	ldr	r0, [sp, #16]
 80017d4:	f01f fb0f 	bl	8020df6 <_ZN5defmt6export3fmt17hd272ca929221a2d0E>
 80017d8:	f012 fc88 	bl	80140ec <_defmt_release>
 80017dc:	e7ff      	b.n	80017de <_ZN101_$LT$embassy_stm32..usb_otg..usb..ControlPipe$LT$T$GT$$u20$as$u20$embassy_usb_driver..ControlPipe$GT$18accept_set_address28_$u7b$$u7b$closure$u7d$$u7d$17h82aa38eeec7d2a02E+0x7e>
 80017de:	9807      	ldr	r0, [sp, #28]
 80017e0:	304d      	adds	r0, #77	; 0x4d
 80017e2:	f7fe fe59 	bl	8000498 <_ZN16critical_section4with17hafbc95158bc66affE>
 80017e6:	9903      	ldr	r1, [sp, #12]
 80017e8:	a81b      	add	r0, sp, #108	; 0x6c
 80017ea:	9001      	str	r0, [sp, #4]
 80017ec:	f000 fa2b 	bl	8001c46 <_ZN101_$LT$embassy_stm32..usb_otg..usb..ControlPipe$LT$T$GT$$u20$as$u20$embassy_usb_driver..ControlPipe$GT$6accept17h12654c54402107e0E>
 80017f0:	9901      	ldr	r1, [sp, #4]
 80017f2:	a809      	add	r0, sp, #36	; 0x24
 80017f4:	9002      	str	r0, [sp, #8]
 80017f6:	f004 fbd2 	bl	8005f9e <_ZN59_$LT$F$u20$as$u20$core..future..into_future..IntoFuture$GT$11into_future17h0ce1cf770efe2766E>
 80017fa:	9902      	ldr	r1, [sp, #8]
 80017fc:	9807      	ldr	r0, [sp, #28]
 80017fe:	2248      	movs	r2, #72	; 0x48
 8001800:	f024 f893 	bl	802592a <__aeabi_memcpy4>
 8001804:	e7ff      	b.n	8001806 <_ZN101_$LT$embassy_stm32..usb_otg..usb..ControlPipe$LT$T$GT$$u20$as$u20$embassy_usb_driver..ControlPipe$GT$18accept_set_address28_$u7b$$u7b$closure$u7d$$u7d$17h82aa38eeec7d2a02E+0xa6>
 8001806:	9807      	ldr	r0, [sp, #28]
 8001808:	9033      	str	r0, [sp, #204]	; 0xcc
 800180a:	992e      	ldr	r1, [sp, #184]	; 0xb8
 800180c:	f000 fa26 	bl	8001c5c <_ZN101_$LT$embassy_stm32..usb_otg..usb..ControlPipe$LT$T$GT$$u20$as$u20$embassy_usb_driver..ControlPipe$GT$6accept28_$u7b$$u7b$closure$u7d$$u7d$17h4c885c53f588b8dfE>
 8001810:	f807 0c19 	strb.w	r0, [r7, #-25]
 8001814:	f817 0c19 	ldrb.w	r0, [r7, #-25]
 8001818:	07c0      	lsls	r0, r0, #31
 800181a:	b130      	cbz	r0, 800182a <_ZN101_$LT$embassy_stm32..usb_otg..usb..ControlPipe$LT$T$GT$$u20$as$u20$embassy_usb_driver..ControlPipe$GT$18accept_set_address28_$u7b$$u7b$closure$u7d$$u7d$17h82aa38eeec7d2a02E+0xca>
 800181c:	e015      	b.n	800184a <_ZN101_$LT$embassy_stm32..usb_otg..usb..ControlPipe$LT$T$GT$$u20$as$u20$embassy_usb_driver..ControlPipe$GT$18accept_set_address28_$u7b$$u7b$closure$u7d$$u7d$17h82aa38eeec7d2a02E+0xea>
 800181e:	f645 700c 	movw	r0, #24332	; 0x5f0c
 8001822:	f6c0 0002 	movt	r0, #2050	; 0x802
 8001826:	f023 fd8b 	bl	8025340 <_ZN4core9panicking11panic_const28panic_const_async_fn_resumed17ha3065e2486788da6E>
 800182a:	9807      	ldr	r0, [sp, #28]
 800182c:	f7ff fdde 	bl	80013ec <_ZN4core3ptr207drop_in_place$LT$$LT$embassy_stm32..usb_otg..usb..ControlPipe$LT$embassy_stm32.._generated..peripherals..USB_OTG_FS$GT$$u20$as$u20$embassy_usb_driver..ControlPipe$GT$..accept..$u7b$$u7b$closure$u7d$$u7d$$GT$17h2926edfff8873e36E>
 8001830:	2000      	movs	r0, #0
 8001832:	f807 0caf 	strb.w	r0, [r7, #-175]
 8001836:	9907      	ldr	r1, [sp, #28]
 8001838:	2001      	movs	r0, #1
 800183a:	f881 004e 	strb.w	r0, [r1, #78]	; 0x4e
 800183e:	f817 0caf 	ldrb.w	r0, [r7, #-175]
 8001842:	f000 0001 	and.w	r0, r0, #1
 8001846:	b034      	add	sp, #208	; 0xd0
 8001848:	bd80      	pop	{r7, pc}
 800184a:	2001      	movs	r0, #1
 800184c:	f807 0caf 	strb.w	r0, [r7, #-175]
 8001850:	9907      	ldr	r1, [sp, #28]
 8001852:	2003      	movs	r0, #3
 8001854:	f881 004e 	strb.w	r0, [r1, #78]	; 0x4e
 8001858:	f817 0caf 	ldrb.w	r0, [r7, #-175]
 800185c:	f000 0001 	and.w	r0, r0, #1
 8001860:	b034      	add	sp, #208	; 0xd0
 8001862:	bd80      	pop	{r7, pc}

08001864 <_ZN101_$LT$embassy_stm32..usb_otg..usb..ControlPipe$LT$T$GT$$u20$as$u20$embassy_usb_driver..ControlPipe$GT$18accept_set_address28_$u7b$$u7b$closure$u7d$$u7d$28_$u7b$$u7b$closure$u7d$$u7d$17h6c894418cefecfe8E>:
 8001864:	b580      	push	{r7, lr}
 8001866:	466f      	mov	r7, sp
 8001868:	b098      	sub	sp, #96	; 0x60
 800186a:	9006      	str	r0, [sp, #24]
 800186c:	f017 faab 	bl	8018dc6 <_ZN13embassy_stm327usb_otg121_$LT$impl$u20$embassy_stm32..usb_otg..sealed..Instance$u20$for$u20$embassy_stm32.._generated..peripherals..USB_OTG_FS$GT$4regs17h32db3f23ac57a193E>
 8001870:	9009      	str	r0, [sp, #36]	; 0x24
 8001872:	9016      	str	r0, [sp, #88]	; 0x58
 8001874:	f44f 6100 	mov.w	r1, #2048	; 0x800
 8001878:	9117      	str	r1, [sp, #92]	; 0x5c
 800187a:	f500 6000 	add.w	r0, r0, #2048	; 0x800
 800187e:	9010      	str	r0, [sp, #64]	; 0x40
 8001880:	9007      	str	r0, [sp, #28]
 8001882:	9906      	ldr	r1, [sp, #24]
 8001884:	9101      	str	r1, [sp, #4]
 8001886:	a807      	add	r0, sp, #28
 8001888:	9002      	str	r0, [sp, #8]
 800188a:	900b      	str	r0, [sp, #44]	; 0x2c
 800188c:	910c      	str	r1, [sp, #48]	; 0x30
 800188e:	900f      	str	r0, [sp, #60]	; 0x3c
 8001890:	9807      	ldr	r0, [sp, #28]
 8001892:	9000      	str	r0, [sp, #0]
 8001894:	9011      	str	r0, [sp, #68]	; 0x44
 8001896:	9012      	str	r0, [sp, #72]	; 0x48
 8001898:	2104      	movs	r1, #4
 800189a:	9103      	str	r1, [sp, #12]
 800189c:	f00c fcfd 	bl	800e29a <_ZN4core3ptr13read_volatile18precondition_check17hd476415df0b63794E>
 80018a0:	9900      	ldr	r1, [sp, #0]
 80018a2:	9801      	ldr	r0, [sp, #4]
 80018a4:	6809      	ldr	r1, [r1, #0]
 80018a6:	9113      	str	r1, [sp, #76]	; 0x4c
 80018a8:	9913      	ldr	r1, [sp, #76]	; 0x4c
 80018aa:	910a      	str	r1, [sp, #40]	; 0x28
 80018ac:	a90a      	add	r1, sp, #40	; 0x28
 80018ae:	f000 f811 	bl	80018d4 <_ZN101_$LT$embassy_stm32..usb_otg..usb..ControlPipe$LT$T$GT$$u20$as$u20$embassy_usb_driver..ControlPipe$GT$18accept_set_address28_$u7b$$u7b$closure$u7d$$u7d$28_$u7b$$u7b$closure$u7d$$u7d$28_$u7b$$u7b$closure$u7d$$u7d$17ha0483ff1d430fbddE>
 80018b2:	9802      	ldr	r0, [sp, #8]
 80018b4:	9903      	ldr	r1, [sp, #12]
 80018b6:	9a0a      	ldr	r2, [sp, #40]	; 0x28
 80018b8:	9205      	str	r2, [sp, #20]
 80018ba:	900d      	str	r0, [sp, #52]	; 0x34
 80018bc:	920e      	str	r2, [sp, #56]	; 0x38
 80018be:	9807      	ldr	r0, [sp, #28]
 80018c0:	9004      	str	r0, [sp, #16]
 80018c2:	9014      	str	r0, [sp, #80]	; 0x50
 80018c4:	9215      	str	r2, [sp, #84]	; 0x54
 80018c6:	f00c fd3c 	bl	800e342 <_ZN4core3ptr14write_volatile18precondition_check17hfc0debe0c1000f08E>
 80018ca:	9904      	ldr	r1, [sp, #16]
 80018cc:	9805      	ldr	r0, [sp, #20]
 80018ce:	6008      	str	r0, [r1, #0]
 80018d0:	b018      	add	sp, #96	; 0x60
 80018d2:	bd80      	pop	{r7, pc}

080018d4 <_ZN101_$LT$embassy_stm32..usb_otg..usb..ControlPipe$LT$T$GT$$u20$as$u20$embassy_usb_driver..ControlPipe$GT$18accept_set_address28_$u7b$$u7b$closure$u7d$$u7d$28_$u7b$$u7b$closure$u7d$$u7d$28_$u7b$$u7b$closure$u7d$$u7d$17ha0483ff1d430fbddE>:
 80018d4:	b084      	sub	sp, #16
 80018d6:	9000      	str	r0, [sp, #0]
 80018d8:	9101      	str	r1, [sp, #4]
 80018da:	9800      	ldr	r0, [sp, #0]
 80018dc:	7802      	ldrb	r2, [r0, #0]
 80018de:	9102      	str	r1, [sp, #8]
 80018e0:	f88d 200f 	strb.w	r2, [sp, #15]
 80018e4:	6808      	ldr	r0, [r1, #0]
 80018e6:	f420 60fe 	bic.w	r0, r0, #2032	; 0x7f0
 80018ea:	f002 027f 	and.w	r2, r2, #127	; 0x7f
 80018ee:	ea40 1002 	orr.w	r0, r0, r2, lsl #4
 80018f2:	6008      	str	r0, [r1, #0]
 80018f4:	b004      	add	sp, #16
 80018f6:	4770      	bx	lr

080018f8 <_ZN101_$LT$embassy_stm32..usb_otg..usb..ControlPipe$LT$T$GT$$u20$as$u20$embassy_usb_driver..ControlPipe$GT$5setup17hb0e2019c75bba6bbE>:
 80018f8:	b082      	sub	sp, #8
 80018fa:	9100      	str	r1, [sp, #0]
 80018fc:	4601      	mov	r1, r0
 80018fe:	9800      	ldr	r0, [sp, #0]
 8001900:	9001      	str	r0, [sp, #4]
 8001902:	6008      	str	r0, [r1, #0]
 8001904:	2000      	movs	r0, #0
 8001906:	7208      	strb	r0, [r1, #8]
 8001908:	b002      	add	sp, #8
 800190a:	4770      	bx	lr

0800190c <_ZN101_$LT$embassy_stm32..usb_otg..usb..ControlPipe$LT$T$GT$$u20$as$u20$embassy_usb_driver..ControlPipe$GT$5setup28_$u7b$$u7b$closure$u7d$$u7d$17h18e97acf5c58455fE>:
 800190c:	b580      	push	{r7, lr}
 800190e:	466f      	mov	r7, sp
 8001910:	b08e      	sub	sp, #56	; 0x38
 8001912:	9201      	str	r2, [sp, #4]
 8001914:	9002      	str	r0, [sp, #8]
 8001916:	9104      	str	r1, [sp, #16]
 8001918:	920b      	str	r2, [sp, #44]	; 0x2c
 800191a:	9804      	ldr	r0, [sp, #16]
 800191c:	7a00      	ldrb	r0, [r0, #8]
 800191e:	4601      	mov	r1, r0
 8001920:	9103      	str	r1, [sp, #12]
 8001922:	b130      	cbz	r0, 8001932 <_ZN101_$LT$embassy_stm32..usb_otg..usb..ControlPipe$LT$T$GT$$u20$as$u20$embassy_usb_driver..ControlPipe$GT$5setup28_$u7b$$u7b$closure$u7d$$u7d$17h18e97acf5c58455fE+0x26>
 8001924:	e7ff      	b.n	8001926 <_ZN101_$LT$embassy_stm32..usb_otg..usb..ControlPipe$LT$T$GT$$u20$as$u20$embassy_usb_driver..ControlPipe$GT$5setup28_$u7b$$u7b$closure$u7d$$u7d$17h18e97acf5c58455fE+0x1a>
 8001926:	9803      	ldr	r0, [sp, #12]
 8001928:	2801      	cmp	r0, #1
 800192a:	d00f      	beq.n	800194c <_ZN101_$LT$embassy_stm32..usb_otg..usb..ControlPipe$LT$T$GT$$u20$as$u20$embassy_usb_driver..ControlPipe$GT$5setup28_$u7b$$u7b$closure$u7d$$u7d$17h18e97acf5c58455fE+0x40>
 800192c:	e7ff      	b.n	800192e <_ZN101_$LT$embassy_stm32..usb_otg..usb..ControlPipe$LT$T$GT$$u20$as$u20$embassy_usb_driver..ControlPipe$GT$5setup28_$u7b$$u7b$closure$u7d$$u7d$17h18e97acf5c58455fE+0x22>
 800192e:	e011      	b.n	8001954 <_ZN101_$LT$embassy_stm32..usb_otg..usb..ControlPipe$LT$T$GT$$u20$as$u20$embassy_usb_driver..ControlPipe$GT$5setup28_$u7b$$u7b$closure$u7d$$u7d$17h18e97acf5c58455fE+0x48>
 8001930:	defe      	udf	#254	; 0xfe
 8001932:	9801      	ldr	r0, [sp, #4]
 8001934:	900a      	str	r0, [sp, #40]	; 0x28
 8001936:	9804      	ldr	r0, [sp, #16]
 8001938:	6800      	ldr	r0, [r0, #0]
 800193a:	900c      	str	r0, [sp, #48]	; 0x30
 800193c:	300a      	adds	r0, #10
 800193e:	f7fe fe10 	bl	8000562 <_ZN12futures_util6future7poll_fn7poll_fn17h1b842676da40511aE>
 8001942:	f7fe fe8c 	bl	800065e <_ZN59_$LT$F$u20$as$u20$core..future..into_future..IntoFuture$GT$11into_future17hb8320545d40a6340E>
 8001946:	9904      	ldr	r1, [sp, #16]
 8001948:	6048      	str	r0, [r1, #4]
 800194a:	e006      	b.n	800195a <_ZN101_$LT$embassy_stm32..usb_otg..usb..ControlPipe$LT$T$GT$$u20$as$u20$embassy_usb_driver..ControlPipe$GT$5setup28_$u7b$$u7b$closure$u7d$$u7d$17h18e97acf5c58455fE+0x4e>
 800194c:	2000      	movs	r0, #0
 800194e:	2800      	cmp	r0, #0
 8001950:	d1fc      	bne.n	800194c <_ZN101_$LT$embassy_stm32..usb_otg..usb..ControlPipe$LT$T$GT$$u20$as$u20$embassy_usb_driver..ControlPipe$GT$5setup28_$u7b$$u7b$closure$u7d$$u7d$17h18e97acf5c58455fE+0x40>
 8001952:	e00f      	b.n	8001974 <_ZN101_$LT$embassy_stm32..usb_otg..usb..ControlPipe$LT$T$GT$$u20$as$u20$embassy_usb_driver..ControlPipe$GT$5setup28_$u7b$$u7b$closure$u7d$$u7d$17h18e97acf5c58455fE+0x68>
 8001954:	9801      	ldr	r0, [sp, #4]
 8001956:	900a      	str	r0, [sp, #40]	; 0x28
 8001958:	e7ff      	b.n	800195a <_ZN101_$LT$embassy_stm32..usb_otg..usb..ControlPipe$LT$T$GT$$u20$as$u20$embassy_usb_driver..ControlPipe$GT$5setup28_$u7b$$u7b$closure$u7d$$u7d$17h18e97acf5c58455fE+0x4e>
 800195a:	9804      	ldr	r0, [sp, #16]
 800195c:	1d01      	adds	r1, r0, #4
 800195e:	910d      	str	r1, [sp, #52]	; 0x34
 8001960:	9a0a      	ldr	r2, [sp, #40]	; 0x28
 8001962:	f1a7 0021 	sub.w	r0, r7, #33	; 0x21
 8001966:	f7fe fecd 	bl	8000704 <_ZN95_$LT$futures_util..future..poll_fn..PollFn$LT$F$GT$$u20$as$u20$core..future..future..Future$GT$4poll17h9acb1dad6931c000E>
 800196a:	f817 0c21 	ldrb.w	r0, [r7, #-33]
 800196e:	07c0      	lsls	r0, r0, #31
 8001970:	b130      	cbz	r0, 8001980 <_ZN101_$LT$embassy_stm32..usb_otg..usb..ControlPipe$LT$T$GT$$u20$as$u20$embassy_usb_driver..ControlPipe$GT$5setup28_$u7b$$u7b$closure$u7d$$u7d$17h18e97acf5c58455fE+0x74>
 8001972:	e019      	b.n	80019a8 <_ZN101_$LT$embassy_stm32..usb_otg..usb..ControlPipe$LT$T$GT$$u20$as$u20$embassy_usb_driver..ControlPipe$GT$5setup28_$u7b$$u7b$closure$u7d$$u7d$17h18e97acf5c58455fE+0x9c>
 8001974:	f645 701c 	movw	r0, #24348	; 0x5f1c
 8001978:	f6c0 0002 	movt	r0, #2050	; 0x802
 800197c:	f023 fce0 	bl	8025340 <_ZN4core9panicking11panic_const28panic_const_async_fn_resumed17ha3065e2486788da6E>
 8001980:	9902      	ldr	r1, [sp, #8]
 8001982:	f857 0c20 	ldr.w	r0, [r7, #-32]
 8001986:	f857 2c1c 	ldr.w	r2, [r7, #-28]
 800198a:	9209      	str	r2, [sp, #36]	; 0x24
 800198c:	9008      	str	r0, [sp, #32]
 800198e:	9808      	ldr	r0, [sp, #32]
 8001990:	9a09      	ldr	r2, [sp, #36]	; 0x24
 8001992:	f8c1 2005 	str.w	r2, [r1, #5]
 8001996:	f8c1 0001 	str.w	r0, [r1, #1]
 800199a:	2000      	movs	r0, #0
 800199c:	7008      	strb	r0, [r1, #0]
 800199e:	9904      	ldr	r1, [sp, #16]
 80019a0:	2001      	movs	r0, #1
 80019a2:	7208      	strb	r0, [r1, #8]
 80019a4:	b00e      	add	sp, #56	; 0x38
 80019a6:	bd80      	pop	{r7, pc}
 80019a8:	9902      	ldr	r1, [sp, #8]
 80019aa:	2001      	movs	r0, #1
 80019ac:	7008      	strb	r0, [r1, #0]
 80019ae:	9904      	ldr	r1, [sp, #16]
 80019b0:	2003      	movs	r0, #3
 80019b2:	7208      	strb	r0, [r1, #8]
 80019b4:	b00e      	add	sp, #56	; 0x38
 80019b6:	bd80      	pop	{r7, pc}

080019b8 <_ZN101_$LT$embassy_stm32..usb_otg..usb..ControlPipe$LT$T$GT$$u20$as$u20$embassy_usb_driver..ControlPipe$GT$5setup28_$u7b$$u7b$closure$u7d$$u7d$28_$u7b$$u7b$closure$u7d$$u7d$17hbfabc39d77585263E>:
 80019b8:	b580      	push	{r7, lr}
 80019ba:	466f      	mov	r7, sp
 80019bc:	b0c2      	sub	sp, #264	; 0x108
 80019be:	9212      	str	r2, [sp, #72]	; 0x48
 80019c0:	9110      	str	r1, [sp, #64]	; 0x40
 80019c2:	9011      	str	r0, [sp, #68]	; 0x44
 80019c4:	911e      	str	r1, [sp, #120]	; 0x78
 80019c6:	921f      	str	r2, [sp, #124]	; 0x7c
 80019c8:	f017 fa00 	bl	8018dcc <_ZN13embassy_stm327usb_otg121_$LT$impl$u20$embassy_stm32..usb_otg..sealed..Instance$u20$for$u20$embassy_stm32.._generated..peripherals..USB_OTG_FS$GT$5state17ha4fb034273bd9c2dE>
 80019cc:	4601      	mov	r1, r0
 80019ce:	9812      	ldr	r0, [sp, #72]	; 0x48
 80019d0:	9115      	str	r1, [sp, #84]	; 0x54
 80019d2:	460a      	mov	r2, r1
 80019d4:	9213      	str	r2, [sp, #76]	; 0x4c
 80019d6:	9120      	str	r1, [sp, #128]	; 0x80
 80019d8:	3150      	adds	r1, #80	; 0x50
 80019da:	9114      	str	r1, [sp, #80]	; 0x50
 80019dc:	f7fe ffc6 	bl	800096c <_ZN4core4task4wake7Context5waker17h4c3c98630f0ba8d3E>
 80019e0:	4601      	mov	r1, r0
 80019e2:	9814      	ldr	r0, [sp, #80]	; 0x50
 80019e4:	f020 ff00 	bl	80227e8 <_ZN12embassy_sync9waitqueue12atomic_waker11AtomicWaker8register17h58e6219afe58582aE>
 80019e8:	f017 f9ed 	bl	8018dc6 <_ZN13embassy_stm327usb_otg121_$LT$impl$u20$embassy_stm32..usb_otg..sealed..Instance$u20$for$u20$embassy_stm32.._generated..peripherals..USB_OTG_FS$GT$4regs17h32db3f23ac57a193E>
 80019ec:	4601      	mov	r1, r0
 80019ee:	9815      	ldr	r0, [sp, #84]	; 0x54
 80019f0:	460a      	mov	r2, r1
 80019f2:	9216      	str	r2, [sp, #88]	; 0x58
 80019f4:	9121      	str	r1, [sp, #132]	; 0x84
 80019f6:	30d6      	adds	r0, #214	; 0xd6
 80019f8:	2100      	movs	r1, #0
 80019fa:	f807 1ca9 	strb.w	r1, [r7, #-169]
 80019fe:	f817 1ca9 	ldrb.w	r1, [r7, #-169]
 8001a02:	f00c fbc5 	bl	800e190 <_ZN4core4sync6atomic10AtomicBool4load17hd5e3b98f1db3cb8aE>
 8001a06:	b908      	cbnz	r0, 8001a0c <_ZN101_$LT$embassy_stm32..usb_otg..usb..ControlPipe$LT$T$GT$$u20$as$u20$embassy_usb_driver..ControlPipe$GT$5setup28_$u7b$$u7b$closure$u7d$$u7d$28_$u7b$$u7b$closure$u7d$$u7d$17hbfabc39d77585263E+0x54>
 8001a08:	e7ff      	b.n	8001a0a <_ZN101_$LT$embassy_stm32..usb_otg..usb..ControlPipe$LT$T$GT$$u20$as$u20$embassy_usb_driver..ControlPipe$GT$5setup28_$u7b$$u7b$closure$u7d$$u7d$28_$u7b$$u7b$closure$u7d$$u7d$17hbfabc39d77585263E+0x52>
 8001a0a:	e06f      	b.n	8001aec <_ZN101_$LT$embassy_stm32..usb_otg..usb..ControlPipe$LT$T$GT$$u20$as$u20$embassy_usb_driver..ControlPipe$GT$5setup28_$u7b$$u7b$closure$u7d$$u7d$28_$u7b$$u7b$closure$u7d$$u7d$17hbfabc39d77585263E+0x134>
 8001a0c:	9813      	ldr	r0, [sp, #76]	; 0x4c
 8001a0e:	9041      	str	r0, [sp, #260]	; 0x104
 8001a10:	6801      	ldr	r1, [r0, #0]
 8001a12:	6842      	ldr	r2, [r0, #4]
 8001a14:	9219      	str	r2, [sp, #100]	; 0x64
 8001a16:	9118      	str	r1, [sp, #96]	; 0x60
 8001a18:	30d6      	adds	r0, #214	; 0xd6
 8001a1a:	2101      	movs	r1, #1
 8001a1c:	f807 1c9d 	strb.w	r1, [r7, #-157]
 8001a20:	f817 2c9d 	ldrb.w	r2, [r7, #-157]
 8001a24:	2100      	movs	r1, #0
 8001a26:	f00c fbc2 	bl	800e1ae <_ZN4core4sync6atomic10AtomicBool5store17hc32091d495eb5128E>
 8001a2a:	9810      	ldr	r0, [sp, #64]	; 0x40
 8001a2c:	6800      	ldr	r0, [r0, #0]
 8001a2e:	f008 fef2 	bl	800a816 <_ZN18embassy_usb_driver15EndpointAddress5index17h0f47c731a984c30dE>
 8001a32:	9916      	ldr	r1, [sp, #88]	; 0x58
 8001a34:	4602      	mov	r2, r0
 8001a36:	920f      	str	r2, [sp, #60]	; 0x3c
 8001a38:	9125      	str	r1, [sp, #148]	; 0x94
 8001a3a:	9026      	str	r0, [sp, #152]	; 0x98
 8001a3c:	2810      	cmp	r0, #16
 8001a3e:	d30b      	bcc.n	8001a58 <_ZN101_$LT$embassy_stm32..usb_otg..usb..ControlPipe$LT$T$GT$$u20$as$u20$embassy_usb_driver..ControlPipe$GT$5setup28_$u7b$$u7b$closure$u7d$$u7d$28_$u7b$$u7b$closure$u7d$$u7d$17hbfabc39d77585263E+0xa0>
 8001a40:	e7ff      	b.n	8001a42 <_ZN101_$LT$embassy_stm32..usb_otg..usb..ControlPipe$LT$T$GT$$u20$as$u20$embassy_usb_driver..ControlPipe$GT$5setup28_$u7b$$u7b$closure$u7d$$u7d$28_$u7b$$u7b$closure$u7d$$u7d$17hbfabc39d77585263E+0x8a>
 8001a42:	f246 10c0 	movw	r0, #25024	; 0x61c0
 8001a46:	f6c0 0002 	movt	r0, #2050	; 0x802
 8001a4a:	f246 32dc 	movw	r2, #25564	; 0x63dc
 8001a4e:	f6c0 0202 	movt	r2, #2050	; 0x802
 8001a52:	211d      	movs	r1, #29
 8001a54:	f022 f9fa 	bl	8023e4c <_ZN4core9panicking5panic17hef327c8726170dbdE>
 8001a58:	980f      	ldr	r0, [sp, #60]	; 0x3c
 8001a5a:	0141      	lsls	r1, r0, #5
 8001a5c:	0ec0      	lsrs	r0, r0, #27
 8001a5e:	910e      	str	r1, [sp, #56]	; 0x38
 8001a60:	b940      	cbnz	r0, 8001a74 <_ZN101_$LT$embassy_stm32..usb_otg..usb..ControlPipe$LT$T$GT$$u20$as$u20$embassy_usb_driver..ControlPipe$GT$5setup28_$u7b$$u7b$closure$u7d$$u7d$28_$u7b$$u7b$closure$u7d$$u7d$17hbfabc39d77585263E+0xbc>
 8001a62:	e7ff      	b.n	8001a64 <_ZN101_$LT$embassy_stm32..usb_otg..usb..ControlPipe$LT$T$GT$$u20$as$u20$embassy_usb_driver..ControlPipe$GT$5setup28_$u7b$$u7b$closure$u7d$$u7d$28_$u7b$$u7b$closure$u7d$$u7d$17hbfabc39d77585263E+0xac>
 8001a64:	990e      	ldr	r1, [sp, #56]	; 0x38
 8001a66:	f501 6031 	add.w	r0, r1, #2832	; 0xb10
 8001a6a:	4602      	mov	r2, r0
 8001a6c:	920d      	str	r2, [sp, #52]	; 0x34
 8001a6e:	4288      	cmp	r0, r1
 8001a70:	d306      	bcc.n	8001a80 <_ZN101_$LT$embassy_stm32..usb_otg..usb..ControlPipe$LT$T$GT$$u20$as$u20$embassy_usb_driver..ControlPipe$GT$5setup28_$u7b$$u7b$closure$u7d$$u7d$28_$u7b$$u7b$closure$u7d$$u7d$17hbfabc39d77585263E+0xc8>
 8001a72:	e00b      	b.n	8001a8c <_ZN101_$LT$embassy_stm32..usb_otg..usb..ControlPipe$LT$T$GT$$u20$as$u20$embassy_usb_driver..ControlPipe$GT$5setup28_$u7b$$u7b$closure$u7d$$u7d$28_$u7b$$u7b$closure$u7d$$u7d$17hbfabc39d77585263E+0xd4>
 8001a74:	f246 30ec 	movw	r0, #25580	; 0x63ec
 8001a78:	f6c0 0002 	movt	r0, #2050	; 0x802
 8001a7c:	f023 fc01 	bl	8025282 <_ZN4core9panicking11panic_const24panic_const_mul_overflow17hb6f4e78f4a28ce64E>
 8001a80:	f246 30fc 	movw	r0, #25596	; 0x63fc
 8001a84:	f6c0 0002 	movt	r0, #2050	; 0x802
 8001a88:	f023 fbd5 	bl	8025236 <_ZN4core9panicking11panic_const24panic_const_add_overflow17h48163ce4cb4ad497E>
 8001a8c:	9816      	ldr	r0, [sp, #88]	; 0x58
 8001a8e:	990d      	ldr	r1, [sp, #52]	; 0x34
 8001a90:	903d      	str	r0, [sp, #244]	; 0xf4
 8001a92:	913e      	str	r1, [sp, #248]	; 0xf8
 8001a94:	4408      	add	r0, r1
 8001a96:	9032      	str	r0, [sp, #200]	; 0xc8
 8001a98:	901b      	str	r0, [sp, #108]	; 0x6c
 8001a9a:	a81b      	add	r0, sp, #108	; 0x6c
 8001a9c:	9009      	str	r0, [sp, #36]	; 0x24
 8001a9e:	902d      	str	r0, [sp, #180]	; 0xb4
 8001aa0:	9030      	str	r0, [sp, #192]	; 0xc0
 8001aa2:	981b      	ldr	r0, [sp, #108]	; 0x6c
 8001aa4:	9008      	str	r0, [sp, #32]
 8001aa6:	9036      	str	r0, [sp, #216]	; 0xd8
 8001aa8:	9037      	str	r0, [sp, #220]	; 0xdc
 8001aaa:	2104      	movs	r1, #4
 8001aac:	910a      	str	r1, [sp, #40]	; 0x28
 8001aae:	f00c fbf4 	bl	800e29a <_ZN4core3ptr13read_volatile18precondition_check17hd476415df0b63794E>
 8001ab2:	9808      	ldr	r0, [sp, #32]
 8001ab4:	6800      	ldr	r0, [r0, #0]
 8001ab6:	9038      	str	r0, [sp, #224]	; 0xe0
 8001ab8:	9838      	ldr	r0, [sp, #224]	; 0xe0
 8001aba:	902c      	str	r0, [sp, #176]	; 0xb0
 8001abc:	a82c      	add	r0, sp, #176	; 0xb0
 8001abe:	f000 f8a8 	bl	8001c12 <_ZN101_$LT$embassy_stm32..usb_otg..usb..ControlPipe$LT$T$GT$$u20$as$u20$embassy_usb_driver..ControlPipe$GT$5setup28_$u7b$$u7b$closure$u7d$$u7d$28_$u7b$$u7b$closure$u7d$$u7d$28_$u7b$$u7b$closure$u7d$$u7d$17h6e9ed4b66303d136E>
 8001ac2:	9809      	ldr	r0, [sp, #36]	; 0x24
 8001ac4:	990a      	ldr	r1, [sp, #40]	; 0x28
 8001ac6:	9a2c      	ldr	r2, [sp, #176]	; 0xb0
 8001ac8:	920c      	str	r2, [sp, #48]	; 0x30
 8001aca:	902e      	str	r0, [sp, #184]	; 0xb8
 8001acc:	922f      	str	r2, [sp, #188]	; 0xbc
 8001ace:	981b      	ldr	r0, [sp, #108]	; 0x6c
 8001ad0:	900b      	str	r0, [sp, #44]	; 0x2c
 8001ad2:	9039      	str	r0, [sp, #228]	; 0xe4
 8001ad4:	923a      	str	r2, [sp, #232]	; 0xe8
 8001ad6:	f00c fc34 	bl	800e342 <_ZN4core3ptr14write_volatile18precondition_check17hfc0debe0c1000f08E>
 8001ada:	9a0b      	ldr	r2, [sp, #44]	; 0x2c
 8001adc:	990c      	ldr	r1, [sp, #48]	; 0x30
 8001ade:	9816      	ldr	r0, [sp, #88]	; 0x58
 8001ae0:	6011      	str	r1, [r2, #0]
 8001ae2:	f01d fe22 	bl	801f72a <_ZN13embassy_stm327usb_otg3usb21quirk_setup_late_cnak17h1e5c114c05c2b4f0E>
 8001ae6:	2800      	cmp	r0, #0
 8001ae8:	d173      	bne.n	8001bd2 <_ZN101_$LT$embassy_stm32..usb_otg..usb..ControlPipe$LT$T$GT$$u20$as$u20$embassy_usb_driver..ControlPipe$GT$5setup28_$u7b$$u7b$closure$u7d$$u7d$28_$u7b$$u7b$closure$u7d$$u7d$17hbfabc39d77585263E+0x21a>
 8001aea:	e016      	b.n	8001b1a <_ZN101_$LT$embassy_stm32..usb_otg..usb..ControlPipe$LT$T$GT$$u20$as$u20$embassy_usb_driver..ControlPipe$GT$5setup28_$u7b$$u7b$closure$u7d$$u7d$28_$u7b$$u7b$closure$u7d$$u7d$17hbfabc39d77585263E+0x162>
 8001aec:	f012 faf9 	bl	80140e2 <_defmt_acquire>
 8001af0:	f240 0097 	movw	r0, #151	; 0x97
 8001af4:	f2c0 0000 	movt	r0, #0
 8001af8:	f021 ff78 	bl	80239ec <_ZN5defmt6export9make_istr17hc00a4ef463faf312E>
 8001afc:	f827 0c92 	strh.w	r0, [r7, #-146]
 8001b00:	f1a7 0092 	sub.w	r0, r7, #146	; 0x92
 8001b04:	f021 ffde 	bl	8023ac4 <_ZN5defmt6export6header17hc8d48e1d45da2002E>
 8001b08:	f012 faf0 	bl	80140ec <_defmt_release>
 8001b0c:	e7ff      	b.n	8001b0e <_ZN101_$LT$embassy_stm32..usb_otg..usb..ControlPipe$LT$T$GT$$u20$as$u20$embassy_usb_driver..ControlPipe$GT$5setup28_$u7b$$u7b$closure$u7d$$u7d$28_$u7b$$u7b$closure$u7d$$u7d$17hbfabc39d77585263E+0x156>
 8001b0e:	9911      	ldr	r1, [sp, #68]	; 0x44
 8001b10:	2001      	movs	r0, #1
 8001b12:	7008      	strb	r0, [r1, #0]
 8001b14:	e7ff      	b.n	8001b16 <_ZN101_$LT$embassy_stm32..usb_otg..usb..ControlPipe$LT$T$GT$$u20$as$u20$embassy_usb_driver..ControlPipe$GT$5setup28_$u7b$$u7b$closure$u7d$$u7d$28_$u7b$$u7b$closure$u7d$$u7d$17hbfabc39d77585263E+0x15e>
 8001b16:	b042      	add	sp, #264	; 0x108
 8001b18:	bd80      	pop	{r7, pc}
 8001b1a:	9810      	ldr	r0, [sp, #64]	; 0x40
 8001b1c:	6800      	ldr	r0, [r0, #0]
 8001b1e:	f008 fe7a 	bl	800a816 <_ZN18embassy_usb_driver15EndpointAddress5index17h0f47c731a984c30dE>
 8001b22:	9916      	ldr	r1, [sp, #88]	; 0x58
 8001b24:	4602      	mov	r2, r0
 8001b26:	9207      	str	r2, [sp, #28]
 8001b28:	9123      	str	r1, [sp, #140]	; 0x8c
 8001b2a:	9024      	str	r0, [sp, #144]	; 0x90
 8001b2c:	2810      	cmp	r0, #16
 8001b2e:	d30b      	bcc.n	8001b48 <_ZN101_$LT$embassy_stm32..usb_otg..usb..ControlPipe$LT$T$GT$$u20$as$u20$embassy_usb_driver..ControlPipe$GT$5setup28_$u7b$$u7b$closure$u7d$$u7d$28_$u7b$$u7b$closure$u7d$$u7d$17hbfabc39d77585263E+0x190>
 8001b30:	e7ff      	b.n	8001b32 <_ZN101_$LT$embassy_stm32..usb_otg..usb..ControlPipe$LT$T$GT$$u20$as$u20$embassy_usb_driver..ControlPipe$GT$5setup28_$u7b$$u7b$closure$u7d$$u7d$28_$u7b$$u7b$closure$u7d$$u7d$17hbfabc39d77585263E+0x17a>
 8001b32:	f246 10c0 	movw	r0, #25024	; 0x61c0
 8001b36:	f6c0 0002 	movt	r0, #2050	; 0x802
 8001b3a:	f246 324c 	movw	r2, #25420	; 0x634c
 8001b3e:	f6c0 0202 	movt	r2, #2050	; 0x802
 8001b42:	211d      	movs	r1, #29
 8001b44:	f022 f982 	bl	8023e4c <_ZN4core9panicking5panic17hef327c8726170dbdE>
 8001b48:	9807      	ldr	r0, [sp, #28]
 8001b4a:	0141      	lsls	r1, r0, #5
 8001b4c:	0ec0      	lsrs	r0, r0, #27
 8001b4e:	9106      	str	r1, [sp, #24]
 8001b50:	b940      	cbnz	r0, 8001b64 <_ZN101_$LT$embassy_stm32..usb_otg..usb..ControlPipe$LT$T$GT$$u20$as$u20$embassy_usb_driver..ControlPipe$GT$5setup28_$u7b$$u7b$closure$u7d$$u7d$28_$u7b$$u7b$closure$u7d$$u7d$17hbfabc39d77585263E+0x1ac>
 8001b52:	e7ff      	b.n	8001b54 <_ZN101_$LT$embassy_stm32..usb_otg..usb..ControlPipe$LT$T$GT$$u20$as$u20$embassy_usb_driver..ControlPipe$GT$5setup28_$u7b$$u7b$closure$u7d$$u7d$28_$u7b$$u7b$closure$u7d$$u7d$17hbfabc39d77585263E+0x19c>
 8001b54:	9906      	ldr	r1, [sp, #24]
 8001b56:	f501 6030 	add.w	r0, r1, #2816	; 0xb00
 8001b5a:	4602      	mov	r2, r0
 8001b5c:	9205      	str	r2, [sp, #20]
 8001b5e:	4288      	cmp	r0, r1
 8001b60:	d306      	bcc.n	8001b70 <_ZN101_$LT$embassy_stm32..usb_otg..usb..ControlPipe$LT$T$GT$$u20$as$u20$embassy_usb_driver..ControlPipe$GT$5setup28_$u7b$$u7b$closure$u7d$$u7d$28_$u7b$$u7b$closure$u7d$$u7d$17hbfabc39d77585263E+0x1b8>
 8001b62:	e00b      	b.n	8001b7c <_ZN101_$LT$embassy_stm32..usb_otg..usb..ControlPipe$LT$T$GT$$u20$as$u20$embassy_usb_driver..ControlPipe$GT$5setup28_$u7b$$u7b$closure$u7d$$u7d$28_$u7b$$u7b$closure$u7d$$u7d$17hbfabc39d77585263E+0x1c4>
 8001b64:	f246 305c 	movw	r0, #25436	; 0x635c
 8001b68:	f6c0 0002 	movt	r0, #2050	; 0x802
 8001b6c:	f023 fb89 	bl	8025282 <_ZN4core9panicking11panic_const24panic_const_mul_overflow17hb6f4e78f4a28ce64E>
 8001b70:	f246 306c 	movw	r0, #25452	; 0x636c
 8001b74:	f6c0 0002 	movt	r0, #2050	; 0x802
 8001b78:	f023 fb5d 	bl	8025236 <_ZN4core9panicking11panic_const24panic_const_add_overflow17h48163ce4cb4ad497E>
 8001b7c:	9816      	ldr	r0, [sp, #88]	; 0x58
 8001b7e:	9905      	ldr	r1, [sp, #20]
 8001b80:	903f      	str	r0, [sp, #252]	; 0xfc
 8001b82:	9140      	str	r1, [sp, #256]	; 0x100
 8001b84:	4408      	add	r0, r1
 8001b86:	9031      	str	r0, [sp, #196]	; 0xc4
 8001b88:	901c      	str	r0, [sp, #112]	; 0x70
 8001b8a:	a81c      	add	r0, sp, #112	; 0x70
 8001b8c:	9001      	str	r0, [sp, #4]
 8001b8e:	9028      	str	r0, [sp, #160]	; 0xa0
 8001b90:	902b      	str	r0, [sp, #172]	; 0xac
 8001b92:	981c      	ldr	r0, [sp, #112]	; 0x70
 8001b94:	9000      	str	r0, [sp, #0]
 8001b96:	9033      	str	r0, [sp, #204]	; 0xcc
 8001b98:	9034      	str	r0, [sp, #208]	; 0xd0
 8001b9a:	2104      	movs	r1, #4
 8001b9c:	9102      	str	r1, [sp, #8]
 8001b9e:	f00c fb7c 	bl	800e29a <_ZN4core3ptr13read_volatile18precondition_check17hd476415df0b63794E>
 8001ba2:	9800      	ldr	r0, [sp, #0]
 8001ba4:	6800      	ldr	r0, [r0, #0]
 8001ba6:	9035      	str	r0, [sp, #212]	; 0xd4
 8001ba8:	9835      	ldr	r0, [sp, #212]	; 0xd4
 8001baa:	9027      	str	r0, [sp, #156]	; 0x9c
 8001bac:	a827      	add	r0, sp, #156	; 0x9c
 8001bae:	f000 f83d 	bl	8001c2c <_ZN101_$LT$embassy_stm32..usb_otg..usb..ControlPipe$LT$T$GT$$u20$as$u20$embassy_usb_driver..ControlPipe$GT$5setup28_$u7b$$u7b$closure$u7d$$u7d$28_$u7b$$u7b$closure$u7d$$u7d$28_$u7b$$u7b$closure$u7d$$u7d$17hc6241413550fd93aE>
 8001bb2:	9801      	ldr	r0, [sp, #4]
 8001bb4:	9902      	ldr	r1, [sp, #8]
 8001bb6:	9a27      	ldr	r2, [sp, #156]	; 0x9c
 8001bb8:	9204      	str	r2, [sp, #16]
 8001bba:	9029      	str	r0, [sp, #164]	; 0xa4
 8001bbc:	922a      	str	r2, [sp, #168]	; 0xa8
 8001bbe:	981c      	ldr	r0, [sp, #112]	; 0x70
 8001bc0:	9003      	str	r0, [sp, #12]
 8001bc2:	903b      	str	r0, [sp, #236]	; 0xec
 8001bc4:	923c      	str	r2, [sp, #240]	; 0xf0
 8001bc6:	f00c fbbc 	bl	800e342 <_ZN4core3ptr14write_volatile18precondition_check17hfc0debe0c1000f08E>
 8001bca:	9903      	ldr	r1, [sp, #12]
 8001bcc:	9804      	ldr	r0, [sp, #16]
 8001bce:	6008      	str	r0, [r1, #0]
 8001bd0:	e7ff      	b.n	8001bd2 <_ZN101_$LT$embassy_stm32..usb_otg..usb..ControlPipe$LT$T$GT$$u20$as$u20$embassy_usb_driver..ControlPipe$GT$5setup28_$u7b$$u7b$closure$u7d$$u7d$28_$u7b$$u7b$closure$u7d$$u7d$17hbfabc39d77585263E+0x21a>
 8001bd2:	a818      	add	r0, sp, #96	; 0x60
 8001bd4:	9022      	str	r0, [sp, #136]	; 0x88
 8001bd6:	e7ff      	b.n	8001bd8 <_ZN101_$LT$embassy_stm32..usb_otg..usb..ControlPipe$LT$T$GT$$u20$as$u20$embassy_usb_driver..ControlPipe$GT$5setup28_$u7b$$u7b$closure$u7d$$u7d$28_$u7b$$u7b$closure$u7d$$u7d$17hbfabc39d77585263E+0x220>
 8001bd8:	f012 fa83 	bl	80140e2 <_defmt_acquire>
 8001bdc:	f240 0096 	movw	r0, #150	; 0x96
 8001be0:	f2c0 0000 	movt	r0, #0
 8001be4:	f021 ff02 	bl	80239ec <_ZN5defmt6export9make_istr17hc00a4ef463faf312E>
 8001be8:	f8ad 0074 	strh.w	r0, [sp, #116]	; 0x74
 8001bec:	a81d      	add	r0, sp, #116	; 0x74
 8001bee:	f021 ff69 	bl	8023ac4 <_ZN5defmt6export6header17hc8d48e1d45da2002E>
 8001bf2:	a818      	add	r0, sp, #96	; 0x60
 8001bf4:	f016 ff9e 	bl	8018b34 <_ZN5defmt6export3fmt17h0a48329f0ae71a4dE>
 8001bf8:	f012 fa78 	bl	80140ec <_defmt_release>
 8001bfc:	e7ff      	b.n	8001bfe <_ZN101_$LT$embassy_stm32..usb_otg..usb..ControlPipe$LT$T$GT$$u20$as$u20$embassy_usb_driver..ControlPipe$GT$5setup28_$u7b$$u7b$closure$u7d$$u7d$28_$u7b$$u7b$closure$u7d$$u7d$17hbfabc39d77585263E+0x246>
 8001bfe:	9911      	ldr	r1, [sp, #68]	; 0x44
 8001c00:	9818      	ldr	r0, [sp, #96]	; 0x60
 8001c02:	9a19      	ldr	r2, [sp, #100]	; 0x64
 8001c04:	f8c1 2005 	str.w	r2, [r1, #5]
 8001c08:	f8c1 0001 	str.w	r0, [r1, #1]
 8001c0c:	2000      	movs	r0, #0
 8001c0e:	7008      	strb	r0, [r1, #0]
 8001c10:	e781      	b.n	8001b16 <_ZN101_$LT$embassy_stm32..usb_otg..usb..ControlPipe$LT$T$GT$$u20$as$u20$embassy_usb_driver..ControlPipe$GT$5setup28_$u7b$$u7b$closure$u7d$$u7d$28_$u7b$$u7b$closure$u7d$$u7d$17hbfabc39d77585263E+0x15e>

08001c12 <_ZN101_$LT$embassy_stm32..usb_otg..usb..ControlPipe$LT$T$GT$$u20$as$u20$embassy_usb_driver..ControlPipe$GT$5setup28_$u7b$$u7b$closure$u7d$$u7d$28_$u7b$$u7b$closure$u7d$$u7d$28_$u7b$$u7b$closure$u7d$$u7d$17h6e9ed4b66303d136E>:
 8001c12:	b084      	sub	sp, #16
 8001c14:	4601      	mov	r1, r0
 8001c16:	9101      	str	r1, [sp, #4]
 8001c18:	9102      	str	r1, [sp, #8]
 8001c1a:	2201      	movs	r2, #1
 8001c1c:	f88d 200f 	strb.w	r2, [sp, #15]
 8001c20:	6808      	ldr	r0, [r1, #0]
 8001c22:	f362 705e 	bfi	r0, r2, #29, #2
 8001c26:	6008      	str	r0, [r1, #0]
 8001c28:	b004      	add	sp, #16
 8001c2a:	4770      	bx	lr

08001c2c <_ZN101_$LT$embassy_stm32..usb_otg..usb..ControlPipe$LT$T$GT$$u20$as$u20$embassy_usb_driver..ControlPipe$GT$5setup28_$u7b$$u7b$closure$u7d$$u7d$28_$u7b$$u7b$closure$u7d$$u7d$28_$u7b$$u7b$closure$u7d$$u7d$17hc6241413550fd93aE>:
 8001c2c:	b084      	sub	sp, #16
 8001c2e:	4601      	mov	r1, r0
 8001c30:	9101      	str	r1, [sp, #4]
 8001c32:	9102      	str	r1, [sp, #8]
 8001c34:	2001      	movs	r0, #1
 8001c36:	f88d 000f 	strb.w	r0, [sp, #15]
 8001c3a:	6808      	ldr	r0, [r1, #0]
 8001c3c:	f040 6080 	orr.w	r0, r0, #67108864	; 0x4000000
 8001c40:	6008      	str	r0, [r1, #0]
 8001c42:	b004      	add	sp, #16
 8001c44:	4770      	bx	lr

08001c46 <_ZN101_$LT$embassy_stm32..usb_otg..usb..ControlPipe$LT$T$GT$$u20$as$u20$embassy_usb_driver..ControlPipe$GT$6accept17h12654c54402107e0E>:
 8001c46:	b082      	sub	sp, #8
 8001c48:	9100      	str	r1, [sp, #0]
 8001c4a:	4601      	mov	r1, r0
 8001c4c:	9800      	ldr	r0, [sp, #0]
 8001c4e:	9001      	str	r0, [sp, #4]
 8001c50:	6008      	str	r0, [r1, #0]
 8001c52:	2000      	movs	r0, #0
 8001c54:	f881 0044 	strb.w	r0, [r1, #68]	; 0x44
 8001c58:	b002      	add	sp, #8
 8001c5a:	4770      	bx	lr

08001c5c <_ZN101_$LT$embassy_stm32..usb_otg..usb..ControlPipe$LT$T$GT$$u20$as$u20$embassy_usb_driver..ControlPipe$GT$6accept28_$u7b$$u7b$closure$u7d$$u7d$17h4c885c53f588b8dfE>:
 8001c5c:	b5b0      	push	{r4, r5, r7, lr}
 8001c5e:	af02      	add	r7, sp, #8
 8001c60:	b0ae      	sub	sp, #184	; 0xb8
 8001c62:	9104      	str	r1, [sp, #16]
 8001c64:	9006      	str	r0, [sp, #24]
 8001c66:	912a      	str	r1, [sp, #168]	; 0xa8
 8001c68:	9806      	ldr	r0, [sp, #24]
 8001c6a:	f890 0044 	ldrb.w	r0, [r0, #68]	; 0x44
 8001c6e:	4601      	mov	r1, r0
 8001c70:	9105      	str	r1, [sp, #20]
 8001c72:	b130      	cbz	r0, 8001c82 <_ZN101_$LT$embassy_stm32..usb_otg..usb..ControlPipe$LT$T$GT$$u20$as$u20$embassy_usb_driver..ControlPipe$GT$6accept28_$u7b$$u7b$closure$u7d$$u7d$17h4c885c53f588b8dfE+0x26>
 8001c74:	e7ff      	b.n	8001c76 <_ZN101_$LT$embassy_stm32..usb_otg..usb..ControlPipe$LT$T$GT$$u20$as$u20$embassy_usb_driver..ControlPipe$GT$6accept28_$u7b$$u7b$closure$u7d$$u7d$17h4c885c53f588b8dfE+0x1a>
 8001c76:	9805      	ldr	r0, [sp, #20]
 8001c78:	2801      	cmp	r0, #1
 8001c7a:	d009      	beq.n	8001c90 <_ZN101_$LT$embassy_stm32..usb_otg..usb..ControlPipe$LT$T$GT$$u20$as$u20$embassy_usb_driver..ControlPipe$GT$6accept28_$u7b$$u7b$closure$u7d$$u7d$17h4c885c53f588b8dfE+0x34>
 8001c7c:	e7ff      	b.n	8001c7e <_ZN101_$LT$embassy_stm32..usb_otg..usb..ControlPipe$LT$T$GT$$u20$as$u20$embassy_usb_driver..ControlPipe$GT$6accept28_$u7b$$u7b$closure$u7d$$u7d$17h4c885c53f588b8dfE+0x22>
 8001c7e:	e00b      	b.n	8001c98 <_ZN101_$LT$embassy_stm32..usb_otg..usb..ControlPipe$LT$T$GT$$u20$as$u20$embassy_usb_driver..ControlPipe$GT$6accept28_$u7b$$u7b$closure$u7d$$u7d$17h4c885c53f588b8dfE+0x3c>
 8001c80:	defe      	udf	#254	; 0xfe
 8001c82:	9804      	ldr	r0, [sp, #16]
 8001c84:	9029      	str	r0, [sp, #164]	; 0xa4
 8001c86:	9806      	ldr	r0, [sp, #24]
 8001c88:	6800      	ldr	r0, [r0, #0]
 8001c8a:	9003      	str	r0, [sp, #12]
 8001c8c:	902b      	str	r0, [sp, #172]	; 0xac
 8001c8e:	e006      	b.n	8001c9e <_ZN101_$LT$embassy_stm32..usb_otg..usb..ControlPipe$LT$T$GT$$u20$as$u20$embassy_usb_driver..ControlPipe$GT$6accept28_$u7b$$u7b$closure$u7d$$u7d$17h4c885c53f588b8dfE+0x42>
 8001c90:	2000      	movs	r0, #0
 8001c92:	2800      	cmp	r0, #0
 8001c94:	d1fc      	bne.n	8001c90 <_ZN101_$LT$embassy_stm32..usb_otg..usb..ControlPipe$LT$T$GT$$u20$as$u20$embassy_usb_driver..ControlPipe$GT$6accept28_$u7b$$u7b$closure$u7d$$u7d$17h4c885c53f588b8dfE+0x34>
 8001c96:	e03d      	b.n	8001d14 <_ZN101_$LT$embassy_stm32..usb_otg..usb..ControlPipe$LT$T$GT$$u20$as$u20$embassy_usb_driver..ControlPipe$GT$6accept28_$u7b$$u7b$closure$u7d$$u7d$17h4c885c53f588b8dfE+0xb8>
 8001c98:	9804      	ldr	r0, [sp, #16]
 8001c9a:	9029      	str	r0, [sp, #164]	; 0xa4
 8001c9c:	e02d      	b.n	8001cfa <_ZN101_$LT$embassy_stm32..usb_otg..usb..ControlPipe$LT$T$GT$$u20$as$u20$embassy_usb_driver..ControlPipe$GT$6accept28_$u7b$$u7b$closure$u7d$$u7d$17h4c885c53f588b8dfE+0x9e>
 8001c9e:	f012 fa20 	bl	80140e2 <_defmt_acquire>
 8001ca2:	f240 009d 	movw	r0, #157	; 0x9d
 8001ca6:	f2c0 0000 	movt	r0, #0
 8001caa:	f021 fe9f 	bl	80239ec <_ZN5defmt6export9make_istr17hc00a4ef463faf312E>
 8001cae:	f827 0ca2 	strh.w	r0, [r7, #-162]
 8001cb2:	f1a7 00a2 	sub.w	r0, r7, #162	; 0xa2
 8001cb6:	f021 ff05 	bl	8023ac4 <_ZN5defmt6export6header17hc8d48e1d45da2002E>
 8001cba:	f012 fa17 	bl	80140ec <_defmt_release>
 8001cbe:	e7ff      	b.n	8001cc0 <_ZN101_$LT$embassy_stm32..usb_otg..usb..ControlPipe$LT$T$GT$$u20$as$u20$embassy_usb_driver..ControlPipe$GT$6accept28_$u7b$$u7b$closure$u7d$$u7d$17h4c885c53f588b8dfE+0x64>
 8001cc0:	9803      	ldr	r0, [sp, #12]
 8001cc2:	1c81      	adds	r1, r0, #2
 8001cc4:	a818      	add	r0, sp, #96	; 0x60
 8001cc6:	9001      	str	r0, [sp, #4]
 8001cc8:	2201      	movs	r2, #1
 8001cca:	2300      	movs	r3, #0
 8001ccc:	f000 fcb4 	bl	8002638 <_ZN131_$LT$embassy_stm32..usb_otg..usb..Endpoint$LT$T$C$embassy_stm32..usb_otg..usb..In$GT$$u20$as$u20$embassy_usb_driver..EndpointIn$GT$5write17h83e6aafb0e3f20d3E>
 8001cd0:	9901      	ldr	r1, [sp, #4]
 8001cd2:	a808      	add	r0, sp, #32
 8001cd4:	9002      	str	r0, [sp, #8]
 8001cd6:	f004 f98c 	bl	8005ff2 <_ZN59_$LT$F$u20$as$u20$core..future..into_future..IntoFuture$GT$11into_future17h8d3eb494bf397c61E>
 8001cda:	9902      	ldr	r1, [sp, #8]
 8001cdc:	9806      	ldr	r0, [sp, #24]
 8001cde:	3004      	adds	r0, #4
 8001ce0:	e8b1 501c 	ldmia.w	r1!, {r2, r3, r4, ip, lr}
 8001ce4:	e8a0 501c 	stmia.w	r0!, {r2, r3, r4, ip, lr}
 8001ce8:	e8b1 501c 	ldmia.w	r1!, {r2, r3, r4, ip, lr}
 8001cec:	e8a0 501c 	stmia.w	r0!, {r2, r3, r4, ip, lr}
 8001cf0:	e891 503c 	ldmia.w	r1, {r2, r3, r4, r5, ip, lr}
 8001cf4:	e880 503c 	stmia.w	r0, {r2, r3, r4, r5, ip, lr}
 8001cf8:	e7ff      	b.n	8001cfa <_ZN101_$LT$embassy_stm32..usb_otg..usb..ControlPipe$LT$T$GT$$u20$as$u20$embassy_usb_driver..ControlPipe$GT$6accept28_$u7b$$u7b$closure$u7d$$u7d$17h4c885c53f588b8dfE+0x9e>
 8001cfa:	9806      	ldr	r0, [sp, #24]
 8001cfc:	3004      	adds	r0, #4
 8001cfe:	902d      	str	r0, [sp, #180]	; 0xb4
 8001d00:	9929      	ldr	r1, [sp, #164]	; 0xa4
 8001d02:	f000 fca9 	bl	8002658 <_ZN131_$LT$embassy_stm32..usb_otg..usb..Endpoint$LT$T$C$embassy_stm32..usb_otg..usb..In$GT$$u20$as$u20$embassy_usb_driver..EndpointIn$GT$5write28_$u7b$$u7b$closure$u7d$$u7d$17hdeb497d9231e85a8E>
 8001d06:	f807 0c1f 	strb.w	r0, [r7, #-31]
 8001d0a:	f817 0c1f 	ldrb.w	r0, [r7, #-31]
 8001d0e:	2803      	cmp	r0, #3
 8001d10:	d106      	bne.n	8001d20 <_ZN101_$LT$embassy_stm32..usb_otg..usb..ControlPipe$LT$T$GT$$u20$as$u20$embassy_usb_driver..ControlPipe$GT$6accept28_$u7b$$u7b$closure$u7d$$u7d$17h4c885c53f588b8dfE+0xc4>
 8001d12:	e012      	b.n	8001d3a <_ZN101_$LT$embassy_stm32..usb_otg..usb..ControlPipe$LT$T$GT$$u20$as$u20$embassy_usb_driver..ControlPipe$GT$6accept28_$u7b$$u7b$closure$u7d$$u7d$17h4c885c53f588b8dfE+0xde>
 8001d14:	f645 702c 	movw	r0, #24364	; 0x5f2c
 8001d18:	f6c0 0002 	movt	r0, #2050	; 0x802
 8001d1c:	f023 fb10 	bl	8025340 <_ZN4core9panicking11panic_const28panic_const_async_fn_resumed17ha3065e2486788da6E>
 8001d20:	f817 0c1f 	ldrb.w	r0, [r7, #-31]
 8001d24:	9000      	str	r0, [sp, #0]
 8001d26:	f807 0c0d 	strb.w	r0, [r7, #-13]
 8001d2a:	9806      	ldr	r0, [sp, #24]
 8001d2c:	3004      	adds	r0, #4
 8001d2e:	f7ff fc02 	bl	8001536 <_ZN4core3ptr236drop_in_place$LT$$LT$embassy_stm32..usb_otg..usb..Endpoint$LT$embassy_stm32.._generated..peripherals..USB_OTG_FS$C$embassy_stm32..usb_otg..usb..In$GT$$u20$as$u20$embassy_usb_driver..EndpointIn$GT$..write..$u7b$$u7b$closure$u7d$$u7d$$GT$17hd9a8bf4522609915E>
 8001d32:	9800      	ldr	r0, [sp, #0]
 8001d34:	f00e f9ee 	bl	8010114 <_ZN4core6result19Result$LT$T$C$E$GT$2ok17h44a1ee9ab715dedfE>
 8001d38:	e00c      	b.n	8001d54 <_ZN101_$LT$embassy_stm32..usb_otg..usb..ControlPipe$LT$T$GT$$u20$as$u20$embassy_usb_driver..ControlPipe$GT$6accept28_$u7b$$u7b$closure$u7d$$u7d$17h4c885c53f588b8dfE+0xf8>
 8001d3a:	2001      	movs	r0, #1
 8001d3c:	f807 0ca3 	strb.w	r0, [r7, #-163]
 8001d40:	9906      	ldr	r1, [sp, #24]
 8001d42:	2003      	movs	r0, #3
 8001d44:	f881 0044 	strb.w	r0, [r1, #68]	; 0x44
 8001d48:	f817 0ca3 	ldrb.w	r0, [r7, #-163]
 8001d4c:	f000 0001 	and.w	r0, r0, #1
 8001d50:	b02e      	add	sp, #184	; 0xb8
 8001d52:	bdb0      	pop	{r4, r5, r7, pc}
 8001d54:	f012 f9c5 	bl	80140e2 <_defmt_acquire>
 8001d58:	f240 009e 	movw	r0, #158	; 0x9e
 8001d5c:	f2c0 0000 	movt	r0, #0
 8001d60:	f021 fe44 	bl	80239ec <_ZN5defmt6export9make_istr17hc00a4ef463faf312E>
 8001d64:	f827 0c1e 	strh.w	r0, [r7, #-30]
 8001d68:	f1a7 001e 	sub.w	r0, r7, #30
 8001d6c:	f021 feaa 	bl	8023ac4 <_ZN5defmt6export6header17hc8d48e1d45da2002E>
 8001d70:	f012 f9bc 	bl	80140ec <_defmt_release>
 8001d74:	e7ff      	b.n	8001d76 <_ZN101_$LT$embassy_stm32..usb_otg..usb..ControlPipe$LT$T$GT$$u20$as$u20$embassy_usb_driver..ControlPipe$GT$6accept28_$u7b$$u7b$closure$u7d$$u7d$17h4c885c53f588b8dfE+0x11a>
 8001d76:	2000      	movs	r0, #0
 8001d78:	f807 0ca3 	strb.w	r0, [r7, #-163]
 8001d7c:	9906      	ldr	r1, [sp, #24]
 8001d7e:	2001      	movs	r0, #1
 8001d80:	f881 0044 	strb.w	r0, [r1, #68]	; 0x44
 8001d84:	f817 0ca3 	ldrb.w	r0, [r7, #-163]
 8001d88:	f000 0001 	and.w	r0, r0, #1
 8001d8c:	b02e      	add	sp, #184	; 0xb8
 8001d8e:	bdb0      	pop	{r4, r5, r7, pc}

08001d90 <_ZN101_$LT$embassy_stm32..usb_otg..usb..ControlPipe$LT$T$GT$$u20$as$u20$embassy_usb_driver..ControlPipe$GT$6reject17h9a7a17e5794002a5E>:
 8001d90:	b082      	sub	sp, #8
 8001d92:	9100      	str	r1, [sp, #0]
 8001d94:	4601      	mov	r1, r0
 8001d96:	9800      	ldr	r0, [sp, #0]
 8001d98:	9001      	str	r0, [sp, #4]
 8001d9a:	6008      	str	r0, [r1, #0]
 8001d9c:	2000      	movs	r0, #0
 8001d9e:	7108      	strb	r0, [r1, #4]
 8001da0:	b002      	add	sp, #8
 8001da2:	4770      	bx	lr

08001da4 <_ZN101_$LT$embassy_stm32..usb_otg..usb..ControlPipe$LT$T$GT$$u20$as$u20$embassy_usb_driver..ControlPipe$GT$6reject28_$u7b$$u7b$closure$u7d$$u7d$17hd507bd3791ef5f24E>:
 8001da4:	b580      	push	{r7, lr}
 8001da6:	466f      	mov	r7, sp
 8001da8:	b0b8      	sub	sp, #224	; 0xe0
 8001daa:	9013      	str	r0, [sp, #76]	; 0x4c
 8001dac:	9117      	str	r1, [sp, #92]	; 0x5c
 8001dae:	9813      	ldr	r0, [sp, #76]	; 0x4c
 8001db0:	7900      	ldrb	r0, [r0, #4]
 8001db2:	b928      	cbnz	r0, 8001dc0 <_ZN101_$LT$embassy_stm32..usb_otg..usb..ControlPipe$LT$T$GT$$u20$as$u20$embassy_usb_driver..ControlPipe$GT$6reject28_$u7b$$u7b$closure$u7d$$u7d$17hd507bd3791ef5f24E+0x1c>
 8001db4:	e7ff      	b.n	8001db6 <_ZN101_$LT$embassy_stm32..usb_otg..usb..ControlPipe$LT$T$GT$$u20$as$u20$embassy_usb_driver..ControlPipe$GT$6reject28_$u7b$$u7b$closure$u7d$$u7d$17hd507bd3791ef5f24E+0x12>
 8001db6:	9813      	ldr	r0, [sp, #76]	; 0x4c
 8001db8:	6800      	ldr	r0, [r0, #0]
 8001dba:	9012      	str	r0, [sp, #72]	; 0x48
 8001dbc:	9018      	str	r0, [sp, #96]	; 0x60
 8001dbe:	e003      	b.n	8001dc8 <_ZN101_$LT$embassy_stm32..usb_otg..usb..ControlPipe$LT$T$GT$$u20$as$u20$embassy_usb_driver..ControlPipe$GT$6reject28_$u7b$$u7b$closure$u7d$$u7d$17hd507bd3791ef5f24E+0x24>
 8001dc0:	2000      	movs	r0, #0
 8001dc2:	2800      	cmp	r0, #0
 8001dc4:	d1fc      	bne.n	8001dc0 <_ZN101_$LT$embassy_stm32..usb_otg..usb..ControlPipe$LT$T$GT$$u20$as$u20$embassy_usb_driver..ControlPipe$GT$6reject28_$u7b$$u7b$closure$u7d$$u7d$17hd507bd3791ef5f24E+0x1c>
 8001dc6:	e0d9      	b.n	8001f7c <_ZN101_$LT$embassy_stm32..usb_otg..usb..ControlPipe$LT$T$GT$$u20$as$u20$embassy_usb_driver..ControlPipe$GT$6reject28_$u7b$$u7b$closure$u7d$$u7d$17hd507bd3791ef5f24E+0x1d8>
 8001dc8:	f012 f98b 	bl	80140e2 <_defmt_acquire>
 8001dcc:	f240 009f 	movw	r0, #159	; 0x9f
 8001dd0:	f2c0 0000 	movt	r0, #0
 8001dd4:	f021 fe0a 	bl	80239ec <_ZN5defmt6export9make_istr17hc00a4ef463faf312E>
 8001dd8:	f827 0c8e 	strh.w	r0, [r7, #-142]
 8001ddc:	f1a7 008e 	sub.w	r0, r7, #142	; 0x8e
 8001de0:	f021 fe70 	bl	8023ac4 <_ZN5defmt6export6header17hc8d48e1d45da2002E>
 8001de4:	f012 f982 	bl	80140ec <_defmt_release>
 8001de8:	e7ff      	b.n	8001dea <_ZN101_$LT$embassy_stm32..usb_otg..usb..ControlPipe$LT$T$GT$$u20$as$u20$embassy_usb_driver..ControlPipe$GT$6reject28_$u7b$$u7b$closure$u7d$$u7d$17hd507bd3791ef5f24E+0x46>
 8001dea:	f016 ffec 	bl	8018dc6 <_ZN13embassy_stm327usb_otg121_$LT$impl$u20$embassy_stm32..usb_otg..sealed..Instance$u20$for$u20$embassy_stm32.._generated..peripherals..USB_OTG_FS$GT$4regs17h32db3f23ac57a193E>
 8001dee:	4601      	mov	r1, r0
 8001df0:	9812      	ldr	r0, [sp, #72]	; 0x48
 8001df2:	9110      	str	r1, [sp, #64]	; 0x40
 8001df4:	460a      	mov	r2, r1
 8001df6:	920f      	str	r2, [sp, #60]	; 0x3c
 8001df8:	9119      	str	r1, [sp, #100]	; 0x64
 8001dfa:	3004      	adds	r0, #4
 8001dfc:	f008 fd0b 	bl	800a816 <_ZN18embassy_usb_driver15EndpointAddress5index17h0f47c731a984c30dE>
 8001e00:	9910      	ldr	r1, [sp, #64]	; 0x40
 8001e02:	4602      	mov	r2, r0
 8001e04:	9211      	str	r2, [sp, #68]	; 0x44
 8001e06:	911a      	str	r1, [sp, #104]	; 0x68
 8001e08:	901b      	str	r0, [sp, #108]	; 0x6c
 8001e0a:	2810      	cmp	r0, #16
 8001e0c:	d30b      	bcc.n	8001e26 <_ZN101_$LT$embassy_stm32..usb_otg..usb..ControlPipe$LT$T$GT$$u20$as$u20$embassy_usb_driver..ControlPipe$GT$6reject28_$u7b$$u7b$closure$u7d$$u7d$17hd507bd3791ef5f24E+0x82>
 8001e0e:	e7ff      	b.n	8001e10 <_ZN101_$LT$embassy_stm32..usb_otg..usb..ControlPipe$LT$T$GT$$u20$as$u20$embassy_usb_driver..ControlPipe$GT$6reject28_$u7b$$u7b$closure$u7d$$u7d$17hd507bd3791ef5f24E+0x6c>
 8001e10:	f246 10c0 	movw	r0, #25024	; 0x61c0
 8001e14:	f6c0 0002 	movt	r0, #2050	; 0x802
 8001e18:	f246 22a0 	movw	r2, #25248	; 0x62a0
 8001e1c:	f6c0 0202 	movt	r2, #2050	; 0x802
 8001e20:	211d      	movs	r1, #29
 8001e22:	f022 f813 	bl	8023e4c <_ZN4core9panicking5panic17hef327c8726170dbdE>
 8001e26:	9811      	ldr	r0, [sp, #68]	; 0x44
 8001e28:	0141      	lsls	r1, r0, #5
 8001e2a:	0ec0      	lsrs	r0, r0, #27
 8001e2c:	910e      	str	r1, [sp, #56]	; 0x38
 8001e2e:	b940      	cbnz	r0, 8001e42 <_ZN101_$LT$embassy_stm32..usb_otg..usb..ControlPipe$LT$T$GT$$u20$as$u20$embassy_usb_driver..ControlPipe$GT$6reject28_$u7b$$u7b$closure$u7d$$u7d$17hd507bd3791ef5f24E+0x9e>
 8001e30:	e7ff      	b.n	8001e32 <_ZN101_$LT$embassy_stm32..usb_otg..usb..ControlPipe$LT$T$GT$$u20$as$u20$embassy_usb_driver..ControlPipe$GT$6reject28_$u7b$$u7b$closure$u7d$$u7d$17hd507bd3791ef5f24E+0x8e>
 8001e32:	990e      	ldr	r1, [sp, #56]	; 0x38
 8001e34:	f501 6010 	add.w	r0, r1, #2304	; 0x900
 8001e38:	4602      	mov	r2, r0
 8001e3a:	920d      	str	r2, [sp, #52]	; 0x34
 8001e3c:	4288      	cmp	r0, r1
 8001e3e:	d306      	bcc.n	8001e4e <_ZN101_$LT$embassy_stm32..usb_otg..usb..ControlPipe$LT$T$GT$$u20$as$u20$embassy_usb_driver..ControlPipe$GT$6reject28_$u7b$$u7b$closure$u7d$$u7d$17hd507bd3791ef5f24E+0xaa>
 8001e40:	e00b      	b.n	8001e5a <_ZN101_$LT$embassy_stm32..usb_otg..usb..ControlPipe$LT$T$GT$$u20$as$u20$embassy_usb_driver..ControlPipe$GT$6reject28_$u7b$$u7b$closure$u7d$$u7d$17hd507bd3791ef5f24E+0xb6>
 8001e42:	f246 20b0 	movw	r0, #25264	; 0x62b0
 8001e46:	f6c0 0002 	movt	r0, #2050	; 0x802
 8001e4a:	f023 fa1a 	bl	8025282 <_ZN4core9panicking11panic_const24panic_const_mul_overflow17hb6f4e78f4a28ce64E>
 8001e4e:	f246 20c0 	movw	r0, #25280	; 0x62c0
 8001e52:	f6c0 0002 	movt	r0, #2050	; 0x802
 8001e56:	f023 f9ee 	bl	8025236 <_ZN4core9panicking11panic_const24panic_const_add_overflow17h48163ce4cb4ad497E>
 8001e5a:	980f      	ldr	r0, [sp, #60]	; 0x3c
 8001e5c:	990d      	ldr	r1, [sp, #52]	; 0x34
 8001e5e:	9036      	str	r0, [sp, #216]	; 0xd8
 8001e60:	9137      	str	r1, [sp, #220]	; 0xdc
 8001e62:	4408      	add	r0, r1
 8001e64:	9029      	str	r0, [sp, #164]	; 0xa4
 8001e66:	9015      	str	r0, [sp, #84]	; 0x54
 8001e68:	a815      	add	r0, sp, #84	; 0x54
 8001e6a:	9008      	str	r0, [sp, #32]
 8001e6c:	901f      	str	r0, [sp, #124]	; 0x7c
 8001e6e:	9022      	str	r0, [sp, #136]	; 0x88
 8001e70:	9815      	ldr	r0, [sp, #84]	; 0x54
 8001e72:	9007      	str	r0, [sp, #28]
 8001e74:	902d      	str	r0, [sp, #180]	; 0xb4
 8001e76:	902e      	str	r0, [sp, #184]	; 0xb8
 8001e78:	2104      	movs	r1, #4
 8001e7a:	9109      	str	r1, [sp, #36]	; 0x24
 8001e7c:	f00c fa0d 	bl	800e29a <_ZN4core3ptr13read_volatile18precondition_check17hd476415df0b63794E>
 8001e80:	9807      	ldr	r0, [sp, #28]
 8001e82:	6800      	ldr	r0, [r0, #0]
 8001e84:	902f      	str	r0, [sp, #188]	; 0xbc
 8001e86:	982f      	ldr	r0, [sp, #188]	; 0xbc
 8001e88:	901e      	str	r0, [sp, #120]	; 0x78
 8001e8a:	a81e      	add	r0, sp, #120	; 0x78
 8001e8c:	f000 f87c 	bl	8001f88 <_ZN101_$LT$embassy_stm32..usb_otg..usb..ControlPipe$LT$T$GT$$u20$as$u20$embassy_usb_driver..ControlPipe$GT$6reject28_$u7b$$u7b$closure$u7d$$u7d$28_$u7b$$u7b$closure$u7d$$u7d$17h03400b2b67a59990E>
 8001e90:	9808      	ldr	r0, [sp, #32]
 8001e92:	9909      	ldr	r1, [sp, #36]	; 0x24
 8001e94:	9a1e      	ldr	r2, [sp, #120]	; 0x78
 8001e96:	920b      	str	r2, [sp, #44]	; 0x2c
 8001e98:	9020      	str	r0, [sp, #128]	; 0x80
 8001e9a:	9221      	str	r2, [sp, #132]	; 0x84
 8001e9c:	9815      	ldr	r0, [sp, #84]	; 0x54
 8001e9e:	900a      	str	r0, [sp, #40]	; 0x28
 8001ea0:	9030      	str	r0, [sp, #192]	; 0xc0
 8001ea2:	9231      	str	r2, [sp, #196]	; 0xc4
 8001ea4:	f00c fa4d 	bl	800e342 <_ZN4core3ptr14write_volatile18precondition_check17hfc0debe0c1000f08E>
 8001ea8:	9a0a      	ldr	r2, [sp, #40]	; 0x28
 8001eaa:	990b      	ldr	r1, [sp, #44]	; 0x2c
 8001eac:	9812      	ldr	r0, [sp, #72]	; 0x48
 8001eae:	6011      	str	r1, [r2, #0]
 8001eb0:	300a      	adds	r0, #10
 8001eb2:	f008 fcb0 	bl	800a816 <_ZN18embassy_usb_driver15EndpointAddress5index17h0f47c731a984c30dE>
 8001eb6:	990f      	ldr	r1, [sp, #60]	; 0x3c
 8001eb8:	4602      	mov	r2, r0
 8001eba:	920c      	str	r2, [sp, #48]	; 0x30
 8001ebc:	911c      	str	r1, [sp, #112]	; 0x70
 8001ebe:	901d      	str	r0, [sp, #116]	; 0x74
 8001ec0:	2810      	cmp	r0, #16
 8001ec2:	d30b      	bcc.n	8001edc <_ZN101_$LT$embassy_stm32..usb_otg..usb..ControlPipe$LT$T$GT$$u20$as$u20$embassy_usb_driver..ControlPipe$GT$6reject28_$u7b$$u7b$closure$u7d$$u7d$17hd507bd3791ef5f24E+0x138>
 8001ec4:	e7ff      	b.n	8001ec6 <_ZN101_$LT$embassy_stm32..usb_otg..usb..ControlPipe$LT$T$GT$$u20$as$u20$embassy_usb_driver..ControlPipe$GT$6reject28_$u7b$$u7b$closure$u7d$$u7d$17hd507bd3791ef5f24E+0x122>
 8001ec6:	f246 10c0 	movw	r0, #25024	; 0x61c0
 8001eca:	f6c0 0002 	movt	r0, #2050	; 0x802
 8001ece:	f246 324c 	movw	r2, #25420	; 0x634c
 8001ed2:	f6c0 0202 	movt	r2, #2050	; 0x802
 8001ed6:	211d      	movs	r1, #29
 8001ed8:	f021 ffb8 	bl	8023e4c <_ZN4core9panicking5panic17hef327c8726170dbdE>
 8001edc:	980c      	ldr	r0, [sp, #48]	; 0x30
 8001ede:	0141      	lsls	r1, r0, #5
 8001ee0:	0ec0      	lsrs	r0, r0, #27
 8001ee2:	9106      	str	r1, [sp, #24]
 8001ee4:	b940      	cbnz	r0, 8001ef8 <_ZN101_$LT$embassy_stm32..usb_otg..usb..ControlPipe$LT$T$GT$$u20$as$u20$embassy_usb_driver..ControlPipe$GT$6reject28_$u7b$$u7b$closure$u7d$$u7d$17hd507bd3791ef5f24E+0x154>
 8001ee6:	e7ff      	b.n	8001ee8 <_ZN101_$LT$embassy_stm32..usb_otg..usb..ControlPipe$LT$T$GT$$u20$as$u20$embassy_usb_driver..ControlPipe$GT$6reject28_$u7b$$u7b$closure$u7d$$u7d$17hd507bd3791ef5f24E+0x144>
 8001ee8:	9906      	ldr	r1, [sp, #24]
 8001eea:	f501 6030 	add.w	r0, r1, #2816	; 0xb00
 8001eee:	4602      	mov	r2, r0
 8001ef0:	9205      	str	r2, [sp, #20]
 8001ef2:	4288      	cmp	r0, r1
 8001ef4:	d306      	bcc.n	8001f04 <_ZN101_$LT$embassy_stm32..usb_otg..usb..ControlPipe$LT$T$GT$$u20$as$u20$embassy_usb_driver..ControlPipe$GT$6reject28_$u7b$$u7b$closure$u7d$$u7d$17hd507bd3791ef5f24E+0x160>
 8001ef6:	e00b      	b.n	8001f10 <_ZN101_$LT$embassy_stm32..usb_otg..usb..ControlPipe$LT$T$GT$$u20$as$u20$embassy_usb_driver..ControlPipe$GT$6reject28_$u7b$$u7b$closure$u7d$$u7d$17hd507bd3791ef5f24E+0x16c>
 8001ef8:	f246 305c 	movw	r0, #25436	; 0x635c
 8001efc:	f6c0 0002 	movt	r0, #2050	; 0x802
 8001f00:	f023 f9bf 	bl	8025282 <_ZN4core9panicking11panic_const24panic_const_mul_overflow17hb6f4e78f4a28ce64E>
 8001f04:	f246 306c 	movw	r0, #25452	; 0x636c
 8001f08:	f6c0 0002 	movt	r0, #2050	; 0x802
 8001f0c:	f023 f993 	bl	8025236 <_ZN4core9panicking11panic_const24panic_const_add_overflow17h48163ce4cb4ad497E>
 8001f10:	980f      	ldr	r0, [sp, #60]	; 0x3c
 8001f12:	9905      	ldr	r1, [sp, #20]
 8001f14:	9034      	str	r0, [sp, #208]	; 0xd0
 8001f16:	9135      	str	r1, [sp, #212]	; 0xd4
 8001f18:	4408      	add	r0, r1
 8001f1a:	9028      	str	r0, [sp, #160]	; 0xa0
 8001f1c:	9016      	str	r0, [sp, #88]	; 0x58
 8001f1e:	a816      	add	r0, sp, #88	; 0x58
 8001f20:	9001      	str	r0, [sp, #4]
 8001f22:	9024      	str	r0, [sp, #144]	; 0x90
 8001f24:	9027      	str	r0, [sp, #156]	; 0x9c
 8001f26:	9816      	ldr	r0, [sp, #88]	; 0x58
 8001f28:	9000      	str	r0, [sp, #0]
 8001f2a:	902a      	str	r0, [sp, #168]	; 0xa8
 8001f2c:	902b      	str	r0, [sp, #172]	; 0xac
 8001f2e:	2104      	movs	r1, #4
 8001f30:	9102      	str	r1, [sp, #8]
 8001f32:	f00c f9b2 	bl	800e29a <_ZN4core3ptr13read_volatile18precondition_check17hd476415df0b63794E>
 8001f36:	9800      	ldr	r0, [sp, #0]
 8001f38:	6800      	ldr	r0, [r0, #0]
 8001f3a:	902c      	str	r0, [sp, #176]	; 0xb0
 8001f3c:	982c      	ldr	r0, [sp, #176]	; 0xb0
 8001f3e:	9023      	str	r0, [sp, #140]	; 0x8c
 8001f40:	a823      	add	r0, sp, #140	; 0x8c
 8001f42:	f000 f82e 	bl	8001fa2 <_ZN101_$LT$embassy_stm32..usb_otg..usb..ControlPipe$LT$T$GT$$u20$as$u20$embassy_usb_driver..ControlPipe$GT$6reject28_$u7b$$u7b$closure$u7d$$u7d$28_$u7b$$u7b$closure$u7d$$u7d$17hc8b2736120a1f963E>
 8001f46:	9801      	ldr	r0, [sp, #4]
 8001f48:	9902      	ldr	r1, [sp, #8]
 8001f4a:	9a23      	ldr	r2, [sp, #140]	; 0x8c
 8001f4c:	9204      	str	r2, [sp, #16]
 8001f4e:	9025      	str	r0, [sp, #148]	; 0x94
 8001f50:	9226      	str	r2, [sp, #152]	; 0x98
 8001f52:	9816      	ldr	r0, [sp, #88]	; 0x58
 8001f54:	9003      	str	r0, [sp, #12]
 8001f56:	9032      	str	r0, [sp, #200]	; 0xc8
 8001f58:	9233      	str	r2, [sp, #204]	; 0xcc
 8001f5a:	f00c f9f2 	bl	800e342 <_ZN4core3ptr14write_volatile18precondition_check17hfc0debe0c1000f08E>
 8001f5e:	9903      	ldr	r1, [sp, #12]
 8001f60:	9804      	ldr	r0, [sp, #16]
 8001f62:	6008      	str	r0, [r1, #0]
 8001f64:	2000      	movs	r0, #0
 8001f66:	f807 0c8f 	strb.w	r0, [r7, #-143]
 8001f6a:	9913      	ldr	r1, [sp, #76]	; 0x4c
 8001f6c:	2001      	movs	r0, #1
 8001f6e:	7108      	strb	r0, [r1, #4]
 8001f70:	f817 0c8f 	ldrb.w	r0, [r7, #-143]
 8001f74:	f000 0001 	and.w	r0, r0, #1
 8001f78:	b038      	add	sp, #224	; 0xe0
 8001f7a:	bd80      	pop	{r7, pc}
 8001f7c:	f645 703c 	movw	r0, #24380	; 0x5f3c
 8001f80:	f6c0 0002 	movt	r0, #2050	; 0x802
 8001f84:	f023 f9dc 	bl	8025340 <_ZN4core9panicking11panic_const28panic_const_async_fn_resumed17ha3065e2486788da6E>

08001f88 <_ZN101_$LT$embassy_stm32..usb_otg..usb..ControlPipe$LT$T$GT$$u20$as$u20$embassy_usb_driver..ControlPipe$GT$6reject28_$u7b$$u7b$closure$u7d$$u7d$28_$u7b$$u7b$closure$u7d$$u7d$17h03400b2b67a59990E>:
 8001f88:	b084      	sub	sp, #16
 8001f8a:	4601      	mov	r1, r0
 8001f8c:	9101      	str	r1, [sp, #4]
 8001f8e:	9102      	str	r1, [sp, #8]
 8001f90:	2001      	movs	r0, #1
 8001f92:	f88d 000f 	strb.w	r0, [sp, #15]
 8001f96:	6808      	ldr	r0, [r1, #0]
 8001f98:	f440 1000 	orr.w	r0, r0, #2097152	; 0x200000
 8001f9c:	6008      	str	r0, [r1, #0]
 8001f9e:	b004      	add	sp, #16
 8001fa0:	4770      	bx	lr

08001fa2 <_ZN101_$LT$embassy_stm32..usb_otg..usb..ControlPipe$LT$T$GT$$u20$as$u20$embassy_usb_driver..ControlPipe$GT$6reject28_$u7b$$u7b$closure$u7d$$u7d$28_$u7b$$u7b$closure$u7d$$u7d$17hc8b2736120a1f963E>:
 8001fa2:	b084      	sub	sp, #16
 8001fa4:	4601      	mov	r1, r0
 8001fa6:	9101      	str	r1, [sp, #4]
 8001fa8:	9102      	str	r1, [sp, #8]
 8001faa:	2001      	movs	r0, #1
 8001fac:	f88d 000f 	strb.w	r0, [sp, #15]
 8001fb0:	6808      	ldr	r0, [r1, #0]
 8001fb2:	f440 1000 	orr.w	r0, r0, #2097152	; 0x200000
 8001fb6:	6008      	str	r0, [r1, #0]
 8001fb8:	b004      	add	sp, #16
 8001fba:	4770      	bx	lr

08001fbc <_ZN101_$LT$embassy_stm32..usb_otg..usb..ControlPipe$LT$T$GT$$u20$as$u20$embassy_usb_driver..ControlPipe$GT$7data_in17hd05e3497ba2f5270E>:
 8001fbc:	b580      	push	{r7, lr}
 8001fbe:	466f      	mov	r7, sp
 8001fc0:	b084      	sub	sp, #16
 8001fc2:	4694      	mov	ip, r2
 8001fc4:	468e      	mov	lr, r1
 8001fc6:	4601      	mov	r1, r0
 8001fc8:	68f8      	ldr	r0, [r7, #12]
 8001fca:	68ba      	ldr	r2, [r7, #8]
 8001fcc:	f8cd e000 	str.w	lr, [sp]
 8001fd0:	f8cd c004 	str.w	ip, [sp, #4]
 8001fd4:	9302      	str	r3, [sp, #8]
 8001fd6:	f807 2c02 	strb.w	r2, [r7, #-2]
 8001fda:	f807 0c01 	strb.w	r0, [r7, #-1]
 8001fde:	f8c1 e014 	str.w	lr, [r1, #20]
 8001fe2:	f8c1 c008 	str.w	ip, [r1, #8]
 8001fe6:	60cb      	str	r3, [r1, #12]
 8001fe8:	768a      	strb	r2, [r1, #26]
 8001fea:	76c8      	strb	r0, [r1, #27]
 8001fec:	2000      	movs	r0, #0
 8001fee:	7648      	strb	r0, [r1, #25]
 8001ff0:	b004      	add	sp, #16
 8001ff2:	bd80      	pop	{r7, pc}

08001ff4 <_ZN101_$LT$embassy_stm32..usb_otg..usb..ControlPipe$LT$T$GT$$u20$as$u20$embassy_usb_driver..ControlPipe$GT$7data_in28_$u7b$$u7b$closure$u7d$$u7d$17h15ba655c78b3a58eE>:
 8001ff4:	b5b0      	push	{r4, r5, r7, lr}
 8001ff6:	af02      	add	r7, sp, #8
 8001ff8:	b0ce      	sub	sp, #312	; 0x138
 8001ffa:	9106      	str	r1, [sp, #24]
 8001ffc:	9008      	str	r0, [sp, #32]
 8001ffe:	9144      	str	r1, [sp, #272]	; 0x110
 8002000:	9808      	ldr	r0, [sp, #32]
 8002002:	7e40      	ldrb	r0, [r0, #25]
 8002004:	9007      	str	r0, [sp, #28]
 8002006:	9907      	ldr	r1, [sp, #28]
 8002008:	e8df f001 	tbb	[pc, r1]
 800200c:	21031d04 	.word	0x21031d04
 8002010:	0024      	.short	0x0024
 8002012:	defe      	udf	#254	; 0xfe
 8002014:	9806      	ldr	r0, [sp, #24]
 8002016:	9043      	str	r0, [sp, #268]	; 0x10c
 8002018:	9908      	ldr	r1, [sp, #32]
 800201a:	6948      	ldr	r0, [r1, #20]
 800201c:	6108      	str	r0, [r1, #16]
 800201e:	9908      	ldr	r1, [sp, #32]
 8002020:	688a      	ldr	r2, [r1, #8]
 8002022:	68c8      	ldr	r0, [r1, #12]
 8002024:	600a      	str	r2, [r1, #0]
 8002026:	6048      	str	r0, [r1, #4]
 8002028:	9808      	ldr	r0, [sp, #32]
 800202a:	7e80      	ldrb	r0, [r0, #26]
 800202c:	f000 0001 	and.w	r0, r0, #1
 8002030:	f807 0c29 	strb.w	r0, [r7, #-41]
 8002034:	9908      	ldr	r1, [sp, #32]
 8002036:	7ec8      	ldrb	r0, [r1, #27]
 8002038:	f000 0001 	and.w	r0, r0, #1
 800203c:	7608      	strb	r0, [r1, #24]
 800203e:	9808      	ldr	r0, [sp, #32]
 8002040:	9005      	str	r0, [sp, #20]
 8002042:	9046      	str	r0, [sp, #280]	; 0x118
 8002044:	e009      	b.n	800205a <_ZN101_$LT$embassy_stm32..usb_otg..usb..ControlPipe$LT$T$GT$$u20$as$u20$embassy_usb_driver..ControlPipe$GT$7data_in28_$u7b$$u7b$closure$u7d$$u7d$17h15ba655c78b3a58eE+0x66>
 8002046:	2000      	movs	r0, #0
 8002048:	2800      	cmp	r0, #0
 800204a:	d1fc      	bne.n	8002046 <_ZN101_$LT$embassy_stm32..usb_otg..usb..ControlPipe$LT$T$GT$$u20$as$u20$embassy_usb_driver..ControlPipe$GT$7data_in28_$u7b$$u7b$closure$u7d$$u7d$17h15ba655c78b3a58eE+0x52>
 800204c:	e043      	b.n	80020d6 <_ZN101_$LT$embassy_stm32..usb_otg..usb..ControlPipe$LT$T$GT$$u20$as$u20$embassy_usb_driver..ControlPipe$GT$7data_in28_$u7b$$u7b$closure$u7d$$u7d$17h15ba655c78b3a58eE+0xe2>
 800204e:	9806      	ldr	r0, [sp, #24]
 8002050:	9043      	str	r0, [sp, #268]	; 0x10c
 8002052:	e033      	b.n	80020bc <_ZN101_$LT$embassy_stm32..usb_otg..usb..ControlPipe$LT$T$GT$$u20$as$u20$embassy_usb_driver..ControlPipe$GT$7data_in28_$u7b$$u7b$closure$u7d$$u7d$17h15ba655c78b3a58eE+0xc8>
 8002054:	9806      	ldr	r0, [sp, #24]
 8002056:	9043      	str	r0, [sp, #268]	; 0x10c
 8002058:	e0a4      	b.n	80021a4 <_ZN101_$LT$embassy_stm32..usb_otg..usb..ControlPipe$LT$T$GT$$u20$as$u20$embassy_usb_driver..ControlPipe$GT$7data_in28_$u7b$$u7b$closure$u7d$$u7d$17h15ba655c78b3a58eE+0x1b0>
 800205a:	f012 f842 	bl	80140e2 <_defmt_acquire>
 800205e:	f240 009a 	movw	r0, #154	; 0x9a
 8002062:	f2c0 0000 	movt	r0, #0
 8002066:	f021 fcc1 	bl	80239ec <_ZN5defmt6export9make_istr17hc00a4ef463faf312E>
 800206a:	f8ad 0028 	strh.w	r0, [sp, #40]	; 0x28
 800206e:	a80a      	add	r0, sp, #40	; 0x28
 8002070:	f021 fd28 	bl	8023ac4 <_ZN5defmt6export6header17hc8d48e1d45da2002E>
 8002074:	9805      	ldr	r0, [sp, #20]
 8002076:	f010 f99f 	bl	80123b8 <_ZN5defmt6export3fmt17hcf13bdc7507eab4eE>
 800207a:	f012 f837 	bl	80140ec <_defmt_release>
 800207e:	e7ff      	b.n	8002080 <_ZN101_$LT$embassy_stm32..usb_otg..usb..ControlPipe$LT$T$GT$$u20$as$u20$embassy_usb_driver..ControlPipe$GT$7data_in28_$u7b$$u7b$closure$u7d$$u7d$17h15ba655c78b3a58eE+0x8c>
 8002080:	9808      	ldr	r0, [sp, #32]
 8002082:	6802      	ldr	r2, [r0, #0]
 8002084:	6843      	ldr	r3, [r0, #4]
 8002086:	6900      	ldr	r0, [r0, #16]
 8002088:	1c81      	adds	r1, r0, #2
 800208a:	a81b      	add	r0, sp, #108	; 0x6c
 800208c:	9003      	str	r0, [sp, #12]
 800208e:	f000 fad3 	bl	8002638 <_ZN131_$LT$embassy_stm32..usb_otg..usb..Endpoint$LT$T$C$embassy_stm32..usb_otg..usb..In$GT$$u20$as$u20$embassy_usb_driver..EndpointIn$GT$5write17h83e6aafb0e3f20d3E>
 8002092:	9903      	ldr	r1, [sp, #12]
 8002094:	a80b      	add	r0, sp, #44	; 0x2c
 8002096:	9004      	str	r0, [sp, #16]
 8002098:	f003 ffab 	bl	8005ff2 <_ZN59_$LT$F$u20$as$u20$core..future..into_future..IntoFuture$GT$11into_future17h8d3eb494bf397c61E>
 800209c:	9904      	ldr	r1, [sp, #16]
 800209e:	9808      	ldr	r0, [sp, #32]
 80020a0:	301c      	adds	r0, #28
 80020a2:	e8b1 501c 	ldmia.w	r1!, {r2, r3, r4, ip, lr}
 80020a6:	e8a0 501c 	stmia.w	r0!, {r2, r3, r4, ip, lr}
 80020aa:	e8b1 501c 	ldmia.w	r1!, {r2, r3, r4, ip, lr}
 80020ae:	e8a0 501c 	stmia.w	r0!, {r2, r3, r4, ip, lr}
 80020b2:	e891 503c 	ldmia.w	r1, {r2, r3, r4, r5, ip, lr}
 80020b6:	e880 503c 	stmia.w	r0, {r2, r3, r4, r5, ip, lr}
 80020ba:	e7ff      	b.n	80020bc <_ZN101_$LT$embassy_stm32..usb_otg..usb..ControlPipe$LT$T$GT$$u20$as$u20$embassy_usb_driver..ControlPipe$GT$7data_in28_$u7b$$u7b$closure$u7d$$u7d$17h15ba655c78b3a58eE+0xc8>
 80020bc:	9808      	ldr	r0, [sp, #32]
 80020be:	301c      	adds	r0, #28
 80020c0:	904c      	str	r0, [sp, #304]	; 0x130
 80020c2:	9943      	ldr	r1, [sp, #268]	; 0x10c
 80020c4:	f000 fac8 	bl	8002658 <_ZN131_$LT$embassy_stm32..usb_otg..usb..Endpoint$LT$T$C$embassy_stm32..usb_otg..usb..In$GT$$u20$as$u20$embassy_usb_driver..EndpointIn$GT$5write28_$u7b$$u7b$closure$u7d$$u7d$17hdeb497d9231e85a8E>
 80020c8:	f807 0c93 	strb.w	r0, [r7, #-147]
 80020cc:	f817 0c93 	ldrb.w	r0, [r7, #-147]
 80020d0:	2803      	cmp	r0, #3
 80020d2:	d106      	bne.n	80020e2 <_ZN101_$LT$embassy_stm32..usb_otg..usb..ControlPipe$LT$T$GT$$u20$as$u20$embassy_usb_driver..ControlPipe$GT$7data_in28_$u7b$$u7b$closure$u7d$$u7d$17h15ba655c78b3a58eE+0xee>
 80020d4:	e018      	b.n	8002108 <_ZN101_$LT$embassy_stm32..usb_otg..usb..ControlPipe$LT$T$GT$$u20$as$u20$embassy_usb_driver..ControlPipe$GT$7data_in28_$u7b$$u7b$closure$u7d$$u7d$17h15ba655c78b3a58eE+0x114>
 80020d6:	f645 704c 	movw	r0, #24396	; 0x5f4c
 80020da:	f6c0 0002 	movt	r0, #2050	; 0x802
 80020de:	f023 f92f 	bl	8025340 <_ZN4core9panicking11panic_const28panic_const_async_fn_resumed17ha3065e2486788da6E>
 80020e2:	f817 0c93 	ldrb.w	r0, [r7, #-147]
 80020e6:	9002      	str	r0, [sp, #8]
 80020e8:	f807 0c22 	strb.w	r0, [r7, #-34]
 80020ec:	9808      	ldr	r0, [sp, #32]
 80020ee:	301c      	adds	r0, #28
 80020f0:	f7ff fa21 	bl	8001536 <_ZN4core3ptr236drop_in_place$LT$$LT$embassy_stm32..usb_otg..usb..Endpoint$LT$embassy_stm32.._generated..peripherals..USB_OTG_FS$C$embassy_stm32..usb_otg..usb..In$GT$$u20$as$u20$embassy_usb_driver..EndpointIn$GT$..write..$u7b$$u7b$closure$u7d$$u7d$$GT$17hd9a8bf4522609915E>
 80020f4:	9802      	ldr	r0, [sp, #8]
 80020f6:	f00e f8c7 	bl	8010288 <_ZN79_$LT$core..result..Result$LT$T$C$E$GT$$u20$as$u20$core..ops..try_trait..Try$GT$6branch17h6be156dbbe4cf52aE>
 80020fa:	f88d 002b 	strb.w	r0, [sp, #43]	; 0x2b
 80020fe:	f89d 002b 	ldrb.w	r0, [sp, #43]	; 0x2b
 8002102:	2802      	cmp	r0, #2
 8002104:	d009      	beq.n	800211a <_ZN101_$LT$embassy_stm32..usb_otg..usb..ControlPipe$LT$T$GT$$u20$as$u20$embassy_usb_driver..ControlPipe$GT$7data_in28_$u7b$$u7b$closure$u7d$$u7d$17h15ba655c78b3a58eE+0x126>
 8002106:	e00d      	b.n	8002124 <_ZN101_$LT$embassy_stm32..usb_otg..usb..ControlPipe$LT$T$GT$$u20$as$u20$embassy_usb_driver..ControlPipe$GT$7data_in28_$u7b$$u7b$closure$u7d$$u7d$17h15ba655c78b3a58eE+0x130>
 8002108:	2003      	movs	r0, #3
 800210a:	f88d 0027 	strb.w	r0, [sp, #39]	; 0x27
 800210e:	9908      	ldr	r1, [sp, #32]
 8002110:	7648      	strb	r0, [r1, #25]
 8002112:	f89d 0027 	ldrb.w	r0, [sp, #39]	; 0x27
 8002116:	b04e      	add	sp, #312	; 0x138
 8002118:	bdb0      	pop	{r4, r5, r7, pc}
 800211a:	9808      	ldr	r0, [sp, #32]
 800211c:	7e00      	ldrb	r0, [r0, #24]
 800211e:	07c0      	lsls	r0, r0, #31
 8002120:	b998      	cbnz	r0, 800214a <_ZN101_$LT$embassy_stm32..usb_otg..usb..ControlPipe$LT$T$GT$$u20$as$u20$embassy_usb_driver..ControlPipe$GT$7data_in28_$u7b$$u7b$closure$u7d$$u7d$17h15ba655c78b3a58eE+0x156>
 8002122:	e00e      	b.n	8002142 <_ZN101_$LT$embassy_stm32..usb_otg..usb..ControlPipe$LT$T$GT$$u20$as$u20$embassy_usb_driver..ControlPipe$GT$7data_in28_$u7b$$u7b$closure$u7d$$u7d$17h15ba655c78b3a58eE+0x14e>
 8002124:	f89d 002b 	ldrb.w	r0, [sp, #43]	; 0x2b
 8002128:	f000 0001 	and.w	r0, r0, #1
 800212c:	f807 0c21 	strb.w	r0, [r7, #-33]
 8002130:	f645 715c 	movw	r1, #24412	; 0x5f5c
 8002134:	f6c0 0102 	movt	r1, #2050	; 0x802
 8002138:	f00d ffbe 	bl	80100b8 <_ZN153_$LT$core..result..Result$LT$T$C$F$GT$$u20$as$u20$core..ops..try_trait..FromResidual$LT$core..result..Result$LT$core..convert..Infallible$C$E$GT$$GT$$GT$13from_residual17h234bb05b72868c35E>
 800213c:	f807 0c35 	strb.w	r0, [r7, #-53]
 8002140:	e03d      	b.n	80021be <_ZN101_$LT$embassy_stm32..usb_otg..usb..ControlPipe$LT$T$GT$$u20$as$u20$embassy_usb_driver..ControlPipe$GT$7data_in28_$u7b$$u7b$closure$u7d$$u7d$17h15ba655c78b3a58eE+0x1ca>
 8002142:	2002      	movs	r0, #2
 8002144:	f807 0c35 	strb.w	r0, [r7, #-53]
 8002148:	e039      	b.n	80021be <_ZN101_$LT$embassy_stm32..usb_otg..usb..ControlPipe$LT$T$GT$$u20$as$u20$embassy_usb_driver..ControlPipe$GT$7data_in28_$u7b$$u7b$closure$u7d$$u7d$17h15ba655c78b3a58eE+0x1ca>
 800214a:	e7ff      	b.n	800214c <_ZN101_$LT$embassy_stm32..usb_otg..usb..ControlPipe$LT$T$GT$$u20$as$u20$embassy_usb_driver..ControlPipe$GT$7data_in28_$u7b$$u7b$closure$u7d$$u7d$17h15ba655c78b3a58eE+0x158>
 800214c:	f011 ffc9 	bl	80140e2 <_defmt_acquire>
 8002150:	f240 009b 	movw	r0, #155	; 0x9b
 8002154:	f2c0 0000 	movt	r0, #0
 8002158:	f021 fc48 	bl	80239ec <_ZN5defmt6export9make_istr17hc00a4ef463faf312E>
 800215c:	f827 0c92 	strh.w	r0, [r7, #-146]
 8002160:	f1a7 0092 	sub.w	r0, r7, #146	; 0x92
 8002164:	f021 fcae 	bl	8023ac4 <_ZN5defmt6export6header17hc8d48e1d45da2002E>
 8002168:	f011 ffc0 	bl	80140ec <_defmt_release>
 800216c:	e7ff      	b.n	800216e <_ZN101_$LT$embassy_stm32..usb_otg..usb..ControlPipe$LT$T$GT$$u20$as$u20$embassy_usb_driver..ControlPipe$GT$7data_in28_$u7b$$u7b$closure$u7d$$u7d$17h15ba655c78b3a58eE+0x17a>
 800216e:	9808      	ldr	r0, [sp, #32]
 8002170:	6900      	ldr	r0, [r0, #16]
 8002172:	f100 0108 	add.w	r1, r0, #8
 8002176:	a836      	add	r0, sp, #216	; 0xd8
 8002178:	9000      	str	r0, [sp, #0]
 800217a:	2201      	movs	r2, #1
 800217c:	2300      	movs	r3, #0
 800217e:	f000 ff8a 	bl	8003096 <_ZN133_$LT$embassy_stm32..usb_otg..usb..Endpoint$LT$T$C$embassy_stm32..usb_otg..usb..Out$GT$$u20$as$u20$embassy_usb_driver..EndpointOut$GT$4read17hd81381936682c89cE>
 8002182:	9900      	ldr	r1, [sp, #0]
 8002184:	a82e      	add	r0, sp, #184	; 0xb8
 8002186:	9001      	str	r0, [sp, #4]
 8002188:	f003 fefe 	bl	8005f88 <_ZN59_$LT$F$u20$as$u20$core..future..into_future..IntoFuture$GT$11into_future17h0c4cd737b9cfd415E>
 800218c:	9901      	ldr	r1, [sp, #4]
 800218e:	9808      	ldr	r0, [sp, #32]
 8002190:	301c      	adds	r0, #28
 8002192:	e8b1 500c 	ldmia.w	r1!, {r2, r3, ip, lr}
 8002196:	e8a0 500c 	stmia.w	r0!, {r2, r3, ip, lr}
 800219a:	e891 500c 	ldmia.w	r1, {r2, r3, ip, lr}
 800219e:	e880 500c 	stmia.w	r0, {r2, r3, ip, lr}
 80021a2:	e7ff      	b.n	80021a4 <_ZN101_$LT$embassy_stm32..usb_otg..usb..ControlPipe$LT$T$GT$$u20$as$u20$embassy_usb_driver..ControlPipe$GT$7data_in28_$u7b$$u7b$closure$u7d$$u7d$17h15ba655c78b3a58eE+0x1b0>
 80021a4:	9808      	ldr	r0, [sp, #32]
 80021a6:	f100 011c 	add.w	r1, r0, #28
 80021aa:	914d      	str	r1, [sp, #308]	; 0x134
 80021ac:	9a43      	ldr	r2, [sp, #268]	; 0x10c
 80021ae:	a83e      	add	r0, sp, #248	; 0xf8
 80021b0:	f000 ff7f 	bl	80030b2 <_ZN133_$LT$embassy_stm32..usb_otg..usb..Endpoint$LT$T$C$embassy_stm32..usb_otg..usb..Out$GT$$u20$as$u20$embassy_usb_driver..EndpointOut$GT$4read28_$u7b$$u7b$closure$u7d$$u7d$17h897f191fed606549E>
 80021b4:	f89d 00f8 	ldrb.w	r0, [sp, #248]	; 0xf8
 80021b8:	2802      	cmp	r0, #2
 80021ba:	d10b      	bne.n	80021d4 <_ZN101_$LT$embassy_stm32..usb_otg..usb..ControlPipe$LT$T$GT$$u20$as$u20$embassy_usb_driver..ControlPipe$GT$7data_in28_$u7b$$u7b$closure$u7d$$u7d$17h15ba655c78b3a58eE+0x1e0>
 80021bc:	e01f      	b.n	80021fe <_ZN101_$LT$embassy_stm32..usb_otg..usb..ControlPipe$LT$T$GT$$u20$as$u20$embassy_usb_driver..ControlPipe$GT$7data_in28_$u7b$$u7b$closure$u7d$$u7d$17h15ba655c78b3a58eE+0x20a>
 80021be:	f817 0c35 	ldrb.w	r0, [r7, #-53]
 80021c2:	f88d 0027 	strb.w	r0, [sp, #39]	; 0x27
 80021c6:	9908      	ldr	r1, [sp, #32]
 80021c8:	2001      	movs	r0, #1
 80021ca:	7648      	strb	r0, [r1, #25]
 80021cc:	f89d 0027 	ldrb.w	r0, [sp, #39]	; 0x27
 80021d0:	b04e      	add	sp, #312	; 0x138
 80021d2:	bdb0      	pop	{r4, r5, r7, pc}
 80021d4:	983e      	ldr	r0, [sp, #248]	; 0xf8
 80021d6:	993f      	ldr	r1, [sp, #252]	; 0xfc
 80021d8:	9141      	str	r1, [sp, #260]	; 0x104
 80021da:	9040      	str	r0, [sp, #256]	; 0x100
 80021dc:	9808      	ldr	r0, [sp, #32]
 80021de:	301c      	adds	r0, #28
 80021e0:	f7ff f9c1 	bl	8001566 <_ZN4core3ptr237drop_in_place$LT$$LT$embassy_stm32..usb_otg..usb..Endpoint$LT$embassy_stm32.._generated..peripherals..USB_OTG_FS$C$embassy_stm32..usb_otg..usb..Out$GT$$u20$as$u20$embassy_usb_driver..EndpointOut$GT$..read..$u7b$$u7b$closure$u7d$$u7d$$GT$17h3a164241ce2fa35cE>
 80021e4:	9840      	ldr	r0, [sp, #256]	; 0x100
 80021e6:	9941      	ldr	r1, [sp, #260]	; 0x104
 80021e8:	9149      	str	r1, [sp, #292]	; 0x124
 80021ea:	9048      	str	r0, [sp, #288]	; 0x120
 80021ec:	a82c      	add	r0, sp, #176	; 0xb0
 80021ee:	a948      	add	r1, sp, #288	; 0x120
 80021f0:	f00e f8a1 	bl	8010336 <_ZN79_$LT$core..result..Result$LT$T$C$E$GT$$u20$as$u20$core..ops..try_trait..Try$GT$6branch17hd39300f5725b9f55E>
 80021f4:	f89d 00b0 	ldrb.w	r0, [sp, #176]	; 0xb0
 80021f8:	07c0      	lsls	r0, r0, #31
 80021fa:	b150      	cbz	r0, 8002212 <_ZN101_$LT$embassy_stm32..usb_otg..usb..ControlPipe$LT$T$GT$$u20$as$u20$embassy_usb_driver..ControlPipe$GT$7data_in28_$u7b$$u7b$closure$u7d$$u7d$17h15ba655c78b3a58eE+0x21e>
 80021fc:	e00c      	b.n	8002218 <_ZN101_$LT$embassy_stm32..usb_otg..usb..ControlPipe$LT$T$GT$$u20$as$u20$embassy_usb_driver..ControlPipe$GT$7data_in28_$u7b$$u7b$closure$u7d$$u7d$17h15ba655c78b3a58eE+0x224>
 80021fe:	2003      	movs	r0, #3
 8002200:	f88d 0027 	strb.w	r0, [sp, #39]	; 0x27
 8002204:	9908      	ldr	r1, [sp, #32]
 8002206:	2004      	movs	r0, #4
 8002208:	7648      	strb	r0, [r1, #25]
 800220a:	f89d 0027 	ldrb.w	r0, [sp, #39]	; 0x27
 800220e:	b04e      	add	sp, #312	; 0x138
 8002210:	bdb0      	pop	{r4, r5, r7, pc}
 8002212:	982d      	ldr	r0, [sp, #180]	; 0xb4
 8002214:	904a      	str	r0, [sp, #296]	; 0x128
 8002216:	e00e      	b.n	8002236 <_ZN101_$LT$embassy_stm32..usb_otg..usb..ControlPipe$LT$T$GT$$u20$as$u20$embassy_usb_driver..ControlPipe$GT$7data_in28_$u7b$$u7b$closure$u7d$$u7d$17h15ba655c78b3a58eE+0x242>
 8002218:	f89d 00b1 	ldrb.w	r0, [sp, #177]	; 0xb1
 800221c:	f000 0001 	and.w	r0, r0, #1
 8002220:	f807 0c11 	strb.w	r0, [r7, #-17]
 8002224:	f645 716c 	movw	r1, #24428	; 0x5f6c
 8002228:	f6c0 0102 	movt	r1, #2050	; 0x802
 800222c:	f00d ff44 	bl	80100b8 <_ZN153_$LT$core..result..Result$LT$T$C$F$GT$$u20$as$u20$core..ops..try_trait..FromResidual$LT$core..result..Result$LT$core..convert..Infallible$C$E$GT$$GT$$GT$13from_residual17h234bb05b72868c35E>
 8002230:	f807 0c35 	strb.w	r0, [r7, #-53]
 8002234:	e7c3      	b.n	80021be <_ZN101_$LT$embassy_stm32..usb_otg..usb..ControlPipe$LT$T$GT$$u20$as$u20$embassy_usb_driver..ControlPipe$GT$7data_in28_$u7b$$u7b$closure$u7d$$u7d$17h15ba655c78b3a58eE+0x1ca>
 8002236:	f011 ff54 	bl	80140e2 <_defmt_acquire>
 800223a:	f240 009c 	movw	r0, #156	; 0x9c
 800223e:	f2c0 0000 	movt	r0, #0
 8002242:	f021 fbd3 	bl	80239ec <_ZN5defmt6export9make_istr17hc00a4ef463faf312E>
 8002246:	f8ad 0108 	strh.w	r0, [sp, #264]	; 0x108
 800224a:	a842      	add	r0, sp, #264	; 0x108
 800224c:	f021 fc3a 	bl	8023ac4 <_ZN5defmt6export6header17hc8d48e1d45da2002E>
 8002250:	f011 ff4c 	bl	80140ec <_defmt_release>
 8002254:	e775      	b.n	8002142 <_ZN101_$LT$embassy_stm32..usb_otg..usb..ControlPipe$LT$T$GT$$u20$as$u20$embassy_usb_driver..ControlPipe$GT$7data_in28_$u7b$$u7b$closure$u7d$$u7d$17h15ba655c78b3a58eE+0x14e>

08002256 <_ZN101_$LT$embassy_stm32..usb_otg..usb..ControlPipe$LT$T$GT$$u20$as$u20$embassy_usb_driver..ControlPipe$GT$8data_out17h96557fe6a2ea00e6E>:
 8002256:	b580      	push	{r7, lr}
 8002258:	466f      	mov	r7, sp
 800225a:	b084      	sub	sp, #16
 800225c:	4694      	mov	ip, r2
 800225e:	468e      	mov	lr, r1
 8002260:	4601      	mov	r1, r0
 8002262:	68f8      	ldr	r0, [r7, #12]
 8002264:	68ba      	ldr	r2, [r7, #8]
 8002266:	f8cd e000 	str.w	lr, [sp]
 800226a:	f8cd c004 	str.w	ip, [sp, #4]
 800226e:	9302      	str	r3, [sp, #8]
 8002270:	f807 2c02 	strb.w	r2, [r7, #-2]
 8002274:	f807 0c01 	strb.w	r0, [r7, #-1]
 8002278:	f8c1 e030 	str.w	lr, [r1, #48]	; 0x30
 800227c:	f8c1 c028 	str.w	ip, [r1, #40]	; 0x28
 8002280:	62cb      	str	r3, [r1, #44]	; 0x2c
 8002282:	f881 2035 	strb.w	r2, [r1, #53]	; 0x35
 8002286:	f881 0036 	strb.w	r0, [r1, #54]	; 0x36
 800228a:	2000      	movs	r0, #0
 800228c:	f881 0034 	strb.w	r0, [r1, #52]	; 0x34
 8002290:	b004      	add	sp, #16
 8002292:	bd80      	pop	{r7, pc}

08002294 <_ZN101_$LT$embassy_stm32..usb_otg..usb..ControlPipe$LT$T$GT$$u20$as$u20$embassy_usb_driver..ControlPipe$GT$8data_out28_$u7b$$u7b$closure$u7d$$u7d$17h17b34d4090af678fE>:
 8002294:	b580      	push	{r7, lr}
 8002296:	466f      	mov	r7, sp
 8002298:	b0ba      	sub	sp, #232	; 0xe8
 800229a:	9206      	str	r2, [sp, #24]
 800229c:	9007      	str	r0, [sp, #28]
 800229e:	9109      	str	r1, [sp, #36]	; 0x24
 80022a0:	9227      	str	r2, [sp, #156]	; 0x9c
 80022a2:	9809      	ldr	r0, [sp, #36]	; 0x24
 80022a4:	f890 0034 	ldrb.w	r0, [r0, #52]	; 0x34
 80022a8:	4601      	mov	r1, r0
 80022aa:	9108      	str	r1, [sp, #32]
 80022ac:	b130      	cbz	r0, 80022bc <_ZN101_$LT$embassy_stm32..usb_otg..usb..ControlPipe$LT$T$GT$$u20$as$u20$embassy_usb_driver..ControlPipe$GT$8data_out28_$u7b$$u7b$closure$u7d$$u7d$17h17b34d4090af678fE+0x28>
 80022ae:	e7ff      	b.n	80022b0 <_ZN101_$LT$embassy_stm32..usb_otg..usb..ControlPipe$LT$T$GT$$u20$as$u20$embassy_usb_driver..ControlPipe$GT$8data_out28_$u7b$$u7b$closure$u7d$$u7d$17h17b34d4090af678fE+0x1c>
 80022b0:	9808      	ldr	r0, [sp, #32]
 80022b2:	2801      	cmp	r0, #1
 80022b4:	d01c      	beq.n	80022f0 <_ZN101_$LT$embassy_stm32..usb_otg..usb..ControlPipe$LT$T$GT$$u20$as$u20$embassy_usb_driver..ControlPipe$GT$8data_out28_$u7b$$u7b$closure$u7d$$u7d$17h17b34d4090af678fE+0x5c>
 80022b6:	e7ff      	b.n	80022b8 <_ZN101_$LT$embassy_stm32..usb_otg..usb..ControlPipe$LT$T$GT$$u20$as$u20$embassy_usb_driver..ControlPipe$GT$8data_out28_$u7b$$u7b$closure$u7d$$u7d$17h17b34d4090af678fE+0x24>
 80022b8:	e01e      	b.n	80022f8 <_ZN101_$LT$embassy_stm32..usb_otg..usb..ControlPipe$LT$T$GT$$u20$as$u20$embassy_usb_driver..ControlPipe$GT$8data_out28_$u7b$$u7b$closure$u7d$$u7d$17h17b34d4090af678fE+0x64>
 80022ba:	defe      	udf	#254	; 0xfe
 80022bc:	9806      	ldr	r0, [sp, #24]
 80022be:	9026      	str	r0, [sp, #152]	; 0x98
 80022c0:	9809      	ldr	r0, [sp, #36]	; 0x24
 80022c2:	6b00      	ldr	r0, [r0, #48]	; 0x30
 80022c4:	9005      	str	r0, [sp, #20]
 80022c6:	9028      	str	r0, [sp, #160]	; 0xa0
 80022c8:	9909      	ldr	r1, [sp, #36]	; 0x24
 80022ca:	6a8a      	ldr	r2, [r1, #40]	; 0x28
 80022cc:	6ac8      	ldr	r0, [r1, #44]	; 0x2c
 80022ce:	620a      	str	r2, [r1, #32]
 80022d0:	6248      	str	r0, [r1, #36]	; 0x24
 80022d2:	9809      	ldr	r0, [sp, #36]	; 0x24
 80022d4:	f890 0035 	ldrb.w	r0, [r0, #53]	; 0x35
 80022d8:	f000 0001 	and.w	r0, r0, #1
 80022dc:	f807 0c42 	strb.w	r0, [r7, #-66]
 80022e0:	9809      	ldr	r0, [sp, #36]	; 0x24
 80022e2:	f890 0036 	ldrb.w	r0, [r0, #54]	; 0x36
 80022e6:	f000 0001 	and.w	r0, r0, #1
 80022ea:	f807 0c41 	strb.w	r0, [r7, #-65]
 80022ee:	e006      	b.n	80022fe <_ZN101_$LT$embassy_stm32..usb_otg..usb..ControlPipe$LT$T$GT$$u20$as$u20$embassy_usb_driver..ControlPipe$GT$8data_out28_$u7b$$u7b$closure$u7d$$u7d$17h17b34d4090af678fE+0x6a>
 80022f0:	2000      	movs	r0, #0
 80022f2:	2800      	cmp	r0, #0
 80022f4:	d1fc      	bne.n	80022f0 <_ZN101_$LT$embassy_stm32..usb_otg..usb..ControlPipe$LT$T$GT$$u20$as$u20$embassy_usb_driver..ControlPipe$GT$8data_out28_$u7b$$u7b$closure$u7d$$u7d$17h17b34d4090af678fE+0x5c>
 80022f6:	e038      	b.n	800236a <_ZN101_$LT$embassy_stm32..usb_otg..usb..ControlPipe$LT$T$GT$$u20$as$u20$embassy_usb_driver..ControlPipe$GT$8data_out28_$u7b$$u7b$closure$u7d$$u7d$17h17b34d4090af678fE+0xd6>
 80022f8:	9806      	ldr	r0, [sp, #24]
 80022fa:	9026      	str	r0, [sp, #152]	; 0x98
 80022fc:	e02a      	b.n	8002354 <_ZN101_$LT$embassy_stm32..usb_otg..usb..ControlPipe$LT$T$GT$$u20$as$u20$embassy_usb_driver..ControlPipe$GT$8data_out28_$u7b$$u7b$closure$u7d$$u7d$17h17b34d4090af678fE+0xc0>
 80022fe:	f011 fef0 	bl	80140e2 <_defmt_acquire>
 8002302:	f240 0098 	movw	r0, #152	; 0x98
 8002306:	f2c0 0000 	movt	r0, #0
 800230a:	f021 fb6f 	bl	80239ec <_ZN5defmt6export9make_istr17hc00a4ef463faf312E>
 800230e:	f827 0cbe 	strh.w	r0, [r7, #-190]
 8002312:	f1a7 00be 	sub.w	r0, r7, #190	; 0xbe
 8002316:	f021 fbd5 	bl	8023ac4 <_ZN5defmt6export6header17hc8d48e1d45da2002E>
 800231a:	f011 fee7 	bl	80140ec <_defmt_release>
 800231e:	e7ff      	b.n	8002320 <_ZN101_$LT$embassy_stm32..usb_otg..usb..ControlPipe$LT$T$GT$$u20$as$u20$embassy_usb_driver..ControlPipe$GT$8data_out28_$u7b$$u7b$closure$u7d$$u7d$17h17b34d4090af678fE+0x8c>
 8002320:	9805      	ldr	r0, [sp, #20]
 8002322:	f100 0108 	add.w	r1, r0, #8
 8002326:	9809      	ldr	r0, [sp, #36]	; 0x24
 8002328:	6a02      	ldr	r2, [r0, #32]
 800232a:	6a43      	ldr	r3, [r0, #36]	; 0x24
 800232c:	a815      	add	r0, sp, #84	; 0x54
 800232e:	9003      	str	r0, [sp, #12]
 8002330:	f000 feb1 	bl	8003096 <_ZN133_$LT$embassy_stm32..usb_otg..usb..Endpoint$LT$T$C$embassy_stm32..usb_otg..usb..Out$GT$$u20$as$u20$embassy_usb_driver..EndpointOut$GT$4read17hd81381936682c89cE>
 8002334:	9903      	ldr	r1, [sp, #12]
 8002336:	a80d      	add	r0, sp, #52	; 0x34
 8002338:	9004      	str	r0, [sp, #16]
 800233a:	f003 fe25 	bl	8005f88 <_ZN59_$LT$F$u20$as$u20$core..future..into_future..IntoFuture$GT$11into_future17h0c4cd737b9cfd415E>
 800233e:	9904      	ldr	r1, [sp, #16]
 8002340:	9809      	ldr	r0, [sp, #36]	; 0x24
 8002342:	e8b1 500c 	ldmia.w	r1!, {r2, r3, ip, lr}
 8002346:	e8a0 500c 	stmia.w	r0!, {r2, r3, ip, lr}
 800234a:	e891 500c 	ldmia.w	r1, {r2, r3, ip, lr}
 800234e:	e880 500c 	stmia.w	r0, {r2, r3, ip, lr}
 8002352:	e7ff      	b.n	8002354 <_ZN101_$LT$embassy_stm32..usb_otg..usb..ControlPipe$LT$T$GT$$u20$as$u20$embassy_usb_driver..ControlPipe$GT$8data_out28_$u7b$$u7b$closure$u7d$$u7d$17h17b34d4090af678fE+0xc0>
 8002354:	9909      	ldr	r1, [sp, #36]	; 0x24
 8002356:	912f      	str	r1, [sp, #188]	; 0xbc
 8002358:	9a26      	ldr	r2, [sp, #152]	; 0x98
 800235a:	a81d      	add	r0, sp, #116	; 0x74
 800235c:	f000 fea9 	bl	80030b2 <_ZN133_$LT$embassy_stm32..usb_otg..usb..Endpoint$LT$T$C$embassy_stm32..usb_otg..usb..Out$GT$$u20$as$u20$embassy_usb_driver..EndpointOut$GT$4read28_$u7b$$u7b$closure$u7d$$u7d$17h897f191fed606549E>
 8002360:	f89d 0074 	ldrb.w	r0, [sp, #116]	; 0x74
 8002364:	2802      	cmp	r0, #2
 8002366:	d106      	bne.n	8002376 <_ZN101_$LT$embassy_stm32..usb_otg..usb..ControlPipe$LT$T$GT$$u20$as$u20$embassy_usb_driver..ControlPipe$GT$8data_out28_$u7b$$u7b$closure$u7d$$u7d$17h17b34d4090af678fE+0xe2>
 8002368:	e019      	b.n	800239e <_ZN101_$LT$embassy_stm32..usb_otg..usb..ControlPipe$LT$T$GT$$u20$as$u20$embassy_usb_driver..ControlPipe$GT$8data_out28_$u7b$$u7b$closure$u7d$$u7d$17h17b34d4090af678fE+0x10a>
 800236a:	f645 707c 	movw	r0, #24444	; 0x5f7c
 800236e:	f6c0 0002 	movt	r0, #2050	; 0x802
 8002372:	f022 ffe5 	bl	8025340 <_ZN4core9panicking11panic_const28panic_const_async_fn_resumed17ha3065e2486788da6E>
 8002376:	981d      	ldr	r0, [sp, #116]	; 0x74
 8002378:	991e      	ldr	r1, [sp, #120]	; 0x78
 800237a:	9120      	str	r1, [sp, #128]	; 0x80
 800237c:	901f      	str	r0, [sp, #124]	; 0x7c
 800237e:	9809      	ldr	r0, [sp, #36]	; 0x24
 8002380:	f7ff f8f1 	bl	8001566 <_ZN4core3ptr237drop_in_place$LT$$LT$embassy_stm32..usb_otg..usb..Endpoint$LT$embassy_stm32.._generated..peripherals..USB_OTG_FS$C$embassy_stm32..usb_otg..usb..Out$GT$$u20$as$u20$embassy_usb_driver..EndpointOut$GT$..read..$u7b$$u7b$closure$u7d$$u7d$$GT$17h3a164241ce2fa35cE>
 8002384:	981f      	ldr	r0, [sp, #124]	; 0x7c
 8002386:	9920      	ldr	r1, [sp, #128]	; 0x80
 8002388:	912b      	str	r1, [sp, #172]	; 0xac
 800238a:	902a      	str	r0, [sp, #168]	; 0xa8
 800238c:	a80b      	add	r0, sp, #44	; 0x2c
 800238e:	a92a      	add	r1, sp, #168	; 0xa8
 8002390:	f00d ffd1 	bl	8010336 <_ZN79_$LT$core..result..Result$LT$T$C$E$GT$$u20$as$u20$core..ops..try_trait..Try$GT$6branch17hd39300f5725b9f55E>
 8002394:	f89d 002c 	ldrb.w	r0, [sp, #44]	; 0x2c
 8002398:	07c0      	lsls	r0, r0, #31
 800239a:	b148      	cbz	r0, 80023b0 <_ZN101_$LT$embassy_stm32..usb_otg..usb..ControlPipe$LT$T$GT$$u20$as$u20$embassy_usb_driver..ControlPipe$GT$8data_out28_$u7b$$u7b$closure$u7d$$u7d$17h17b34d4090af678fE+0x11c>
 800239c:	e031      	b.n	8002402 <_ZN101_$LT$embassy_stm32..usb_otg..usb..ControlPipe$LT$T$GT$$u20$as$u20$embassy_usb_driver..ControlPipe$GT$8data_out28_$u7b$$u7b$closure$u7d$$u7d$17h17b34d4090af678fE+0x16e>
 800239e:	9907      	ldr	r1, [sp, #28]
 80023a0:	2002      	movs	r0, #2
 80023a2:	7008      	strb	r0, [r1, #0]
 80023a4:	9909      	ldr	r1, [sp, #36]	; 0x24
 80023a6:	2003      	movs	r0, #3
 80023a8:	f881 0034 	strb.w	r0, [r1, #52]	; 0x34
 80023ac:	b03a      	add	sp, #232	; 0xe8
 80023ae:	bd80      	pop	{r7, pc}
 80023b0:	980c      	ldr	r0, [sp, #48]	; 0x30
